Microchip MPLAB XC8 Compiler V2.31

Linker command line:

-W-3 --edf=C:\Program Files\Microchip\xc8\v2.31\pic\dat\en_msgs.txt -cn \
  -h+dist/default/production\Embedded_Testing_Terminal.X.production.sym \
  --cmf=dist/default/production\Embedded_Testing_Terminal.X.production.cmf \
  -z -Q18F47K42 -oC:\Users\VICTOR~1\AppData\Local\Temp\sjgk.2 \
  --defsym=__MPLAB_BUILD=1 \
  -Mdist/default/production/Embedded_Testing_Terminal.X.production.map -E1 \
  -ver=XC8 Compiler --acfsm=1493 -ASTACK=01E7h-01BAAh -pstack=STACK \
  -ACODE=00h-01FFFFh -ACONST=00h-01FFFFh -ASMALLCONST=02000h-020FFhx480 \
  -AMEDIUMCONST=02000h-0FFFFh,012000h-01FFFFh -ACOMRAM=01h-05Fh \
  -AABS1=00h-01FFFh -ABIGRAM=01h-01FFFh -ARAM=060h-0FFh,0100h-01FFhx31 \
  -ABANK0=060h-0FFh -ABANK1=0100h-01FFh -ABANK2=0200h-02FFh \
  -ABANK3=0300h-03FFh -ABANK4=0400h-04FFh -ABANK5=0500h-05FFh \
  -ABANK6=0600h-06FFh -ABANK7=0700h-07FFh -ABANK8=0800h-08FFh \
  -ABANK9=0900h-09FFh -ABANK10=0A00h-0AFFh -ABANK11=0B00h-0BFFh \
  -ABANK12=0C00h-0CFFh -ABANK13=0D00h-0DFFh -ABANK14=0E00h-0EFFh \
  -ABANK15=0F00h-0FFFh -ABANK16=01000h-010FFh -ABANK17=01100h-011FFh \
  -ABANK18=01200h-012FFh -ABANK19=01300h-013FFh -ABANK20=01400h-014FFh \
  -ABANK21=01500h-015FFh -ABANK22=01600h-016FFh -ABANK23=01700h-017FFh \
  -ABANK24=01800h-018FFh -ABANK25=01900h-019FFh -ABANK26=01A00h-01AFFh \
  -ABANK27=01B00h-01BFFh -ABANK28=01C00h-01CFFh -ABANK29=01D00h-01DFFh \
  -ABANK30=01E00h-01EFFh -ABANK31=01F00h-01FFFh \
  -ASFR=03800h-038FFhx7,03F00h-03F5Fh,03F60h-03FFFh \
  -ACONFIG=0300000h-0300009h -AIDLOC=0200000h-020000Fh \
  -AEEDATA=0310000h-03103FFh -peeprom_data=EEDATA -preset_vec=00h \
  -ppowerup=CODE,init -pramtop=02000h -psmallconst=SMALLCONST \
  -pmediumconst=MEDIUMCONST -pconst=CONST -AFARRAM=00h-00h \
  -prdata=COMRAM,nvrram=COMRAM,nvbit=COMRAM,rbss=COMRAM,rbit=COMRAM \
  -pfarbss=FARRAM,fardata=FARRAM,nvFARRAM=FARRAM \
  -pintsave_regs=BIGRAM,bigbss=BIGRAM,bigdata=BIGRAM -pbss=RAM \
  -pidata=CODE,irdata=CODE,ibigdata=CODE,ifardata=CODE -prparam=COMRAM \
  C:\Users\VICTOR~1\AppData\Local\Temp\sjgk.o \
  dist/default/production\Embedded_Testing_Terminal.X.production.o 

Object code version is 3.11

Machine type is 18F47K42



                Name                               Link     Load   Length Selector   Space Scale
C:\Users\VICTOR~1\AppData\Local\Temp\sjgk.o
                idloc                            200000   200000       10        0       5
                config                           300000   300000        A        0       4
                init                              1FFFC    1FFFC        4     FFFE       0
                reset_vec                             0        0        4        0       0
dist/default/production\Embedded_Testing_Terminal.X.production.o
                idloc                            200000   200000       10        0       5
                config                           300000   300000        A        0       4
                mediumconst                        FBDC     FBDC      424     7DEE       0
                text127                           1A698    1A698       22     8000       0
                text126                           1A47E    1A47E       40     8000       0
                text125                           1A0DE    1A0DE       5A     8000       0
                text124                           1A676    1A676       22     8000       0
                text123                           19D5A    19D5A       6C     8000       0
                text122                           19B10    19B10       7A     8000       0
                text121                           1A3B2    1A3B2       48     8000       0
                text120                           1A71E    1A71E       16     8000       0
                text119                           19352    19352       A6     8000       0
                text118                           1A138    1A138       58     8000       0
                text117                           19CE8    19CE8       72     8000       0
                text116                           19A96    19A96       7A     8000       0
                text115                           18658    18658       DE     8000       0
                text114                           1988A    1988A       88     8000       0
                text113                           172F0    172F0      188     8000       0
                text112                           1775E    1775E      164     8000       0
                text111                           1A43E    1A43E       40     8000       0
                text110                           1A7D0    1A7D0        2     8000       0
                text109                           18A9E    18A9E       D8     8000       0
                text108                           1A3FA    1A3FA       44     8000       0
                text107                           19126    19126       C6     8000       0
                text106                           15A44    15A44      2E4     8000       0
                text105                           16896    16896      214     8000       0
                text104                           19E30    19E30       6A     8000       0
                text103                           1A236    1A236       52     8000       0
                text102                           188EC    188EC       DA     8000       0
                text101                           16C70    16C70      1B2     8000       0
                text100                           15704    15704      340     8000       0
                text99                            18192    18192      10C     8000       0
                text98                            17CC4    17CC4      148     8000       0
                text97                            18D22    18D22       D6     8000       0
                text96                            18812    18812       DA     8000       0
                text95                            19774    19774       8E     8000       0
                text94                            18C4C    18C4C       D6     8000       0
                text93                            18B76    18B76       D6     8000       0
                text92                            196E6    196E6       8E     8000       0
                text91                            18736    18736       DC     8000       0
                text90                            17B7A    17B7A      14A     8000       0
                text89                            19658    19658       8E     8000       0
                text88                            1A5D0    1A5D0       32     8000       0
                text87                            1A62C    1A62C       26     8000       0
                text86                            1A780    1A780       10     8000       0
                text85                            1A770    1A770       10     8000       0
                text84                            1A602    1A602       2A     8000       0
                text83                            1A532    1A532       38     8000       0
                text82                            1A1E4    1A1E4       52     8000       0
                text81                            16FC2    16FC2      19E     8000       0
                text80                            18ECC    18ECC       CC     8000       0
                text79                            193F8    193F8       A4     8000       0
                text78                            1A4BE    1A4BE       3C     8000       0
                text77                            19532    19532       94     8000       0
                text76                            18570    18570       E8     8000       0
                text75                            1A7BA    1A7BA        8     8000       0
                text74                            1A7B2    1A7B2        8     8000       0
                text73                            1A652    1A652       24     8000       0
                text72                            1A084    1A084       5A     8000       0
                text71                            14176    14176      48C     8000       0
                text70                            19EFE    19EFE       64     8000       0
                text69                            17160    17160      190     8000       0
                text68                            14ECC    14ECC      456     8000       0
                text67                            1A7C2    1A7C2        6     8000       0
                text66                            17F3C    17F3C      130     8000       0
                text65                            19C74    19C74       74     8000       0
                text64                            12574    12574      69E     8000       0
                text63                            17E0C    17E0C      130     8000       0
                text62                            19C00    19C00       74     8000       0
                text61                            16AAA    16AAA      1C6     8000       0
                text60                            18DF8    18DF8       D4     8000       0
                text59                            178C2    178C2      160     8000       0
                text58                            19FC4    19FC4       62     8000       0
                text57                            19DC6    19DC6       6A     8000       0
                text56                            11DB6    11DB6      7BE     8000       0
                text55                            1A190    1A190       54     8000       0
                text54                            1A706    1A706       18     8000       0
                text53                            1A7CC    1A7CC        4     8000       0
                text52                            1A7C8    1A7C8        4     8000       0
                text51                            19A1A    19A1A       7C     8000       0
                text50                            17478    17478      178     8000       0
                text49                            191EC    191EC       BC     8000       0
                text48                            10000    10000      D4E     8000       0
                text47                            18488    18488       E8     8000       0
                text46                            14A70    14A70      45C     8000       0
                text45                            19996    19996       84     8000       0
                text44                            1A56A    1A56A       34     8000       0
                text43                            131E2    131E2      570     8000       0
                text42                            12C12    12C12      5D0     8000       0
                text41                            189C6    189C6       D8     8000       0
                text40                            1A4FA    1A4FA       38     8000       0
                text39                            17A22    17A22      158     8000       0
                text38                            14602    14602      46E     8000       0
                text37                            15322    15322      3E2     8000       0
                text36                            175F0    175F0      16E     8000       0
                text35                            19F62    19F62       62     8000       0
                text34                            1829E    1829E       FA     8000       0
                text33                            19B8A    19B8A       76     8000       0
                text32                            1A7A8    1A7A8        A     8000       0
                text31                            1A79E    1A79E        A     8000       0
                text30                            13CBE    13CBE      4B8     8000       0
                text29                            16E22    16E22      1A0     8000       0
                text28                            19912    19912       84     8000       0
                text27                            15D28    15D28      2BA     8000       0
                text26                            15FE2    15FE2      23A     8000       0
                text25                            1A288    1A288       50     8000       0
                text24                            1158C    1158C      82A     8000       0
                text23                            1A59E    1A59E       32     8000       0
                text22                            16446    16446      22A     8000       0
                text21                            1806C    1806C      126     8000       0
                text20                            1621C    1621C      22A     8000       0
                text19                            10D4E    10D4E      83E     8000       0
                text18                            18398    18398       F0     8000       0
                text17                            1A36A    1A36A       48     8000       0
                text16                            1A2D8    1A2D8       4A     8000       0
                text15                            19802    19802       88     8000       0
                text14                            1A75C    1A75C       14     8000       0
                text13                            1A6D4    1A6D4       1A     8000       0
                text12                            18F98    18F98       C8     8000       0
                text11                            19E9A    19E9A       64     8000       0
                text10                            19060    19060       C6     8000       0
                text9                             1949C    1949C       96     8000       0
                text8                             13752    13752      56C     8000       0
                text7                             1A026    1A026       5E     8000       0
                text6                             16670    16670      226     8000       0
                text5                             195C6    195C6       92     8000       0
                text4                             1A6EE    1A6EE       18     8000       0
                text3                             192A8    192A8       AA     8000       0
                text2                             1A6BA    1A6BA       1A     8000       0
                text1                             1A790    1A790        E     8000       0
                text0                             1A748    1A748       14     8000       0
                cstackCOMRAM                          1        1       5F        1       1
                cstackBANK0                          60       60       A0       60       1
                cstackBANK1                         182      182       51      100       1
                bssBIGRAM                          1BAB     1BAB      455     1BAB       1
                dataBANK1                           1D3      1D3       14      100       1
                bssBANK1                            100      100       82      100       1
                cinit                             1A322    1A322       48     8000       0
                idataBANK1                        1A734    1A734       14     8000       0

TOTAL           Name                               Link     Load   Length     Space
        CLASS   STACK          

        CLASS   CODE           
                init                              1FFFC    1FFFC        4         0
                reset_vec                             0        0        4         0
                text127                           1A698    1A698       22         0
                text126                           1A47E    1A47E       40         0
                text125                           1A0DE    1A0DE       5A         0
                text124                           1A676    1A676       22         0
                text123                           19D5A    19D5A       6C         0
                text122                           19B10    19B10       7A         0
                text121                           1A3B2    1A3B2       48         0
                text120                           1A71E    1A71E       16         0
                text119                           19352    19352       A6         0
                text118                           1A138    1A138       58         0
                text117                           19CE8    19CE8       72         0
                text116                           19A96    19A96       7A         0
                text115                           18658    18658       DE         0
                text114                           1988A    1988A       88         0
                text113                           172F0    172F0      188         0
                text112                           1775E    1775E      164         0
                text111                           1A43E    1A43E       40         0
                text110                           1A7D0    1A7D0        2         0
                text109                           18A9E    18A9E       D8         0
                text108                           1A3FA    1A3FA       44         0
                text107                           19126    19126       C6         0
                text106                           15A44    15A44      2E4         0
                text105                           16896    16896      214         0
                text104                           19E30    19E30       6A         0
                text103                           1A236    1A236       52         0
                text102                           188EC    188EC       DA         0
                text101                           16C70    16C70      1B2         0
                text100                           15704    15704      340         0
                text99                            18192    18192      10C         0
                text98                            17CC4    17CC4      148         0
                text97                            18D22    18D22       D6         0
                text96                            18812    18812       DA         0
                text95                            19774    19774       8E         0
                text94                            18C4C    18C4C       D6         0
                text93                            18B76    18B76       D6         0
                text92                            196E6    196E6       8E         0
                text91                            18736    18736       DC         0
                text90                            17B7A    17B7A      14A         0
                text89                            19658    19658       8E         0
                text88                            1A5D0    1A5D0       32         0
                text87                            1A62C    1A62C       26         0
                text86                            1A780    1A780       10         0
                text85                            1A770    1A770       10         0
                text84                            1A602    1A602       2A         0
                text83                            1A532    1A532       38         0
                text82                            1A1E4    1A1E4       52         0
                text81                            16FC2    16FC2      19E         0
                text80                            18ECC    18ECC       CC         0
                text79                            193F8    193F8       A4         0
                text78                            1A4BE    1A4BE       3C         0
                text77                            19532    19532       94         0
                text76                            18570    18570       E8         0
                text75                            1A7BA    1A7BA        8         0
                text74                            1A7B2    1A7B2        8         0
                text73                            1A652    1A652       24         0
                text72                            1A084    1A084       5A         0
                text71                            14176    14176      48C         0
                text70                            19EFE    19EFE       64         0
                text69                            17160    17160      190         0
                text68                            14ECC    14ECC      456         0
                text67                            1A7C2    1A7C2        6         0
                text66                            17F3C    17F3C      130         0
                text65                            19C74    19C74       74         0
                text64                            12574    12574      69E         0
                text63                            17E0C    17E0C      130         0
                text62                            19C00    19C00       74         0
                text61                            16AAA    16AAA      1C6         0
                text60                            18DF8    18DF8       D4         0
                text59                            178C2    178C2      160         0
                text58                            19FC4    19FC4       62         0
                text57                            19DC6    19DC6       6A         0
                text56                            11DB6    11DB6      7BE         0
                text55                            1A190    1A190       54         0
                text54                            1A706    1A706       18         0
                text53                            1A7CC    1A7CC        4         0
                text52                            1A7C8    1A7C8        4         0
                text51                            19A1A    19A1A       7C         0
                text50                            17478    17478      178         0
                text49                            191EC    191EC       BC         0
                text48                            10000    10000      D4E         0
                text47                            18488    18488       E8         0
                text46                            14A70    14A70      45C         0
                text45                            19996    19996       84         0
                text44                            1A56A    1A56A       34         0
                text43                            131E2    131E2      570         0
                text42                            12C12    12C12      5D0         0
                text41                            189C6    189C6       D8         0
                text40                            1A4FA    1A4FA       38         0
                text39                            17A22    17A22      158         0
                text38                            14602    14602      46E         0
                text37                            15322    15322      3E2         0
                text36                            175F0    175F0      16E         0
                text35                            19F62    19F62       62         0
                text34                            1829E    1829E       FA         0
                text33                            19B8A    19B8A       76         0
                text32                            1A7A8    1A7A8        A         0
                text31                            1A79E    1A79E        A         0
                text30                            13CBE    13CBE      4B8         0
                text29                            16E22    16E22      1A0         0
                text28                            19912    19912       84         0
                text27                            15D28    15D28      2BA         0
                text26                            15FE2    15FE2      23A         0
                text25                            1A288    1A288       50         0
                text24                            1158C    1158C      82A         0
                text23                            1A59E    1A59E       32         0
                text22                            16446    16446      22A         0
                text21                            1806C    1806C      126         0
                text20                            1621C    1621C      22A         0
                text19                            10D4E    10D4E      83E         0
                text18                            18398    18398       F0         0
                text17                            1A36A    1A36A       48         0
                text16                            1A2D8    1A2D8       4A         0
                text15                            19802    19802       88         0
                text14                            1A75C    1A75C       14         0
                text13                            1A6D4    1A6D4       1A         0
                text12                            18F98    18F98       C8         0
                text11                            19E9A    19E9A       64         0
                text10                            19060    19060       C6         0
                text9                             1949C    1949C       96         0
                text8                             13752    13752      56C         0
                text7                             1A026    1A026       5E         0
                text6                             16670    16670      226         0
                text5                             195C6    195C6       92         0
                text4                             1A6EE    1A6EE       18         0
                text3                             192A8    192A8       AA         0
                text2                             1A6BA    1A6BA       1A         0
                text1                             1A790    1A790        E         0
                text0                             1A748    1A748       14         0
                cinit                             1A322    1A322       48         0
                idataBANK1                        1A734    1A734       14         0

        CLASS   CONST          

        CLASS   SMALLCONST     

        CLASS   MEDIUMCONST    
                mediumconst                        FBDC     FBDC      424         0

        CLASS   COMRAM         
                cstackCOMRAM                          1        1       5F         1

        CLASS   ABS1           

        CLASS   BIGRAM         
                bssBIGRAM                          1BAB     1BAB      455         1

        CLASS   RAM            

        CLASS   BANK0          
                cstackBANK0                          60       60       A0         1

        CLASS   BANK1          
                cstackBANK1                         182      182       51         1
                dataBANK1                           1D3      1D3       14         1
                bssBANK1                            100      100       82         1

        CLASS   BANK2          

        CLASS   BANK3          

        CLASS   BANK4          

        CLASS   BANK5          

        CLASS   BANK6          

        CLASS   BANK7          

        CLASS   BANK8          

        CLASS   BANK9          

        CLASS   BANK10         

        CLASS   BANK11         

        CLASS   BANK12         

        CLASS   BANK13         

        CLASS   BANK14         

        CLASS   BANK15         

        CLASS   BANK16         

        CLASS   BANK17         

        CLASS   BANK18         

        CLASS   BANK19         

        CLASS   BANK20         

        CLASS   BANK21         

        CLASS   BANK22         

        CLASS   BANK23         

        CLASS   BANK24         

        CLASS   BANK25         

        CLASS   BANK26         

        CLASS   BANK27         

        CLASS   BANK28         

        CLASS   BANK29         

        CLASS   BANK30         

        CLASS   BANK31         

        CLASS   SFR            

        CLASS   CONFIG         
                config                           300000   300000        A         4

        CLASS   IDLOC          
                idloc                            200000   200000       10         5

        CLASS   EEDATA         

        CLASS   FARRAM         



SEGMENTS        Name                           Load    Length   Top    Selector   Space  Class

                reset_vec                      000000  000004  000004         0       0  CODE    
                cstackCOMRAM                   000001  00005F  000060         1       1  COMRAM  
                cstackBANK0                    000060  0000A0  000100        60       1  BANK0   
                bssBANK1                       000100  0000E7  0001E7       100       1  BANK1   
                bssBIGRAM                      001BAB  000455  002000      1BAB       1  BIGRAM  
                mediumconst                    00FBDC  000424  010000      7DEE       0  MEDIUMCO
                text48                         010000  00A7D2  01A7D2      8000       0  CODE    
                init                           01FFFC  000004  020000      FFFE       0  CODE    


UNUSED ADDRESS RANGES

        Name                Unused          Largest block    Delta
        BANK1            0001E7-0001FF               19
        BANK10           000A00-000AFF              100
        BANK11           000B00-000BFF              100
        BANK12           000C00-000CFF              100
        BANK13           000D00-000DFF              100
        BANK14           000E00-000EFF              100
        BANK15           000F00-000FFF              100
        BANK16           001000-0010FF              100
        BANK17           001100-0011FF              100
        BANK18           001200-0012FF              100
        BANK19           001300-0013FF              100
        BANK2            000200-0002FF              100
        BANK20           001400-0014FF              100
        BANK21           001500-0015FF              100
        BANK22           001600-0016FF              100
        BANK23           001700-0017FF              100
        BANK24           001800-0018FF              100
        BANK25           001900-0019FF              100
        BANK26           001A00-001AFF              100
        BANK27           001B00-001BAA               AB
        BANK3            000300-0003FF              100
        BANK4            000400-0004FF              100
        BANK5            000500-0005FF              100
        BANK6            000600-0006FF              100
        BANK7            000700-0007FF              100
        BANK8            000800-0008FF              100
        BANK9            000900-0009FF              100
        BIGRAM           0001E7-001BAA             19C4
        CODE             000004-00FBDB             FBD8
                         01A7D2-01FFFB             582A
        CONST            000004-00FBDB             FBD8
                         01A7D2-01FFFB             582A
        EEDATA           310000-3103FF              400
        MEDIUMCONST      002000-00FBDB             DBDC
                         01A7D2-01FFFB             582A
        RAM              0001E7-001BAA              100
        SFR              003800-003FFF              100
        SMALLCONST       002000-00FBDB              100
                         01A7D2-01FFFB              100
        STACK            0001E7-001BAA             19C4

                                  Symbol Table

?_Auto_Boud_Setup                         cstackCOMRAM 000007
?_Number_Select                           cstackBANK0  00006E
?_SD_SendCmd                              cstackCOMRAM 00000C
?_Toggle_Select                           cstackBANK0  00006A
?___aldiv                                 cstackCOMRAM 000001
?___aodiv                                 cstackCOMRAM 000001
?___aomod                                 cstackCOMRAM 000001
?___lldiv                                 cstackCOMRAM 000001
?___lmul                                  cstackCOMRAM 000001
?___wmul                                  cstackCOMRAM 000001
?_abs                                     cstackCOMRAM 000013
?_atoi                                    cstackCOMRAM 000008
?_chk_chr                                 cstackCOMRAM 000001
?_clst2sect                               cstackCOMRAM 00000D
?_create_chain                            cstackBANK0  000097
?_dbc_1st                                 cstackCOMRAM 000001
?_dbc_2nd                                 cstackCOMRAM 000001
?_dtoa                                    cstackCOMRAM 00001C
?_get_fat                                 cstackBANK0  000076
?_get_ldnumber                            cstackCOMRAM 000001
?_isdigit                                 cstackCOMRAM 000001
?_isspace                                 cstackCOMRAM 000001
?_ld_clust                                cstackCOMRAM 000008
?_ld_dword                                cstackCOMRAM 000001
?_ld_word                                 cstackCOMRAM 000001
?_mem_cmp                                 cstackCOMRAM 000001
?_pad                                     cstackCOMRAM 000011
?_sprintf                                 cstackCOMRAM 000058
?_strlen                                  cstackCOMRAM 000001
?_vfpfcnvrt                               cstackCOMRAM 000040
?_vfprintf                                cstackCOMRAM 000050
Auto_Boud_Setup@i                         cstackCOMRAM 00000A
Auto_Boud_Setup@syncChar                  cstackCOMRAM 000009
Baud_Rate_Settings@autoBaudChar           cstackBANK0  00006A
Command_Write@cmd                         cstackCOMRAM 000001
Data_Write@dat                            cstackCOMRAM 000001
Display_Character@ASCII                   cstackCOMRAM 000005
Display_Character@dat                     cstackCOMRAM 000004
Display_Character@i                       cstackCOMRAM 000006
Display_Message@data                      cstackCOMRAM 00000C
Display_Message@i                         cstackCOMRAM 00000D
Display_Message@message                   cstackCOMRAM 000008
Error_Check@messageInt                    cstackCOMRAM 00001C
Error_Settings@errorcheckChar             cstackBANK0  00006A
GLCD_Clear@cursor                         cstackCOMRAM 000003
GLCD_Clear@line                           cstackCOMRAM 000004
Number_Select@longPress                   cstackBANK0  000078
Number_Select@max                         cstackBANK0  000072
Number_Select@number                      cstackBANK0  00006E
Number_Update@number                      cstackBANK0  00006A
SD_SPI_AsyncReadTasks@SingleBlockRead     bssBANK1     00013D
SD_SPI_AsyncReadTasks@bData               cstackCOMRAM 00002D
SD_SPI_AsyncReadTasks@blockCounter        bssBANK1     000135
SD_SPI_AsyncReadTasks@info                cstackCOMRAM 000022
SD_SPI_AsyncReadTasks@longTimeoutCounter  bssBANK1     00011D
SD_SPI_AsyncReadTasks@response            cstackCOMRAM 000028
SD_SPI_AsyncWriteTasks@WriteTimeout       bssBANK1     000119
SD_SPI_AsyncWriteTasks@blockCounter       bssBANK1     000133
SD_SPI_AsyncWriteTasks@command            bssBANK1     00013B
SD_SPI_AsyncWriteTasks@data_byte          bssBANK1     00013C
SD_SPI_AsyncWriteTasks@info               cstackCOMRAM 000022
SD_SPI_AsyncWriteTasks@preEraseBlockCount cstackCOMRAM 00002D
SD_SPI_AsyncWriteTasks@response           cstackCOMRAM 000028
SD_SPI_DelayMilliseconds@milliseconds     cstackCOMRAM 000004
SD_SPI_DelayMilliseconds@timeout          cstackCOMRAM 000002
SD_SPI_MediaInitialize@CSDResponse        cstackCOMRAM 00002D
SD_SPI_MediaInitialize@block_len          cstackCOMRAM 000047
SD_SPI_MediaInitialize@c_size             cstackCOMRAM 000049
SD_SPI_MediaInitialize@c_size_mult        cstackCOMRAM 000045
SD_SPI_MediaInitialize@count              cstackCOMRAM 000048
SD_SPI_MediaInitialize@index              cstackCOMRAM 000046
SD_SPI_MediaInitialize@response           cstackCOMRAM 00004D
SD_SPI_MediaInitialize@timeout            cstackCOMRAM 000052
SD_SPI_SectorRead@buffer                  cstackCOMRAM 000032
SD_SPI_SectorRead@i                       cstackCOMRAM 00003A
SD_SPI_SectorRead@info                    cstackCOMRAM 00003C
SD_SPI_SectorRead@result                  cstackCOMRAM 000038
SD_SPI_SectorRead@sector_address          cstackCOMRAM 00002E
SD_SPI_SectorRead@sector_count            cstackCOMRAM 000034
SD_SPI_SectorRead@status                  cstackCOMRAM 000039
SD_SPI_SectorWrite@buffer                 cstackCOMRAM 000035
SD_SPI_SectorWrite@i                      cstackCOMRAM 00003D
SD_SPI_SectorWrite@info                   cstackCOMRAM 00003F
SD_SPI_SectorWrite@result                 cstackCOMRAM 00003B
SD_SPI_SectorWrite@sector_address         cstackCOMRAM 000031
SD_SPI_SectorWrite@sector_count           cstackCOMRAM 000037
SD_SPI_SectorWrite@status                 cstackCOMRAM 00003C
SD_SendCmd@address                        cstackCOMRAM 00000C
SD_SendCmd@address_bytes                  cstackCOMRAM 000016
SD_SendCmd@cmd                            cstackCOMRAM 00001C
SD_SendCmd@longTimeout                    cstackCOMRAM 000012
SD_SendCmd@response                       cstackCOMRAM 00001D
SD_SendCmd@timeout                        cstackCOMRAM 00001A
SPI1_ExchangeBlock@block                  cstackCOMRAM 000001
SPI1_ExchangeBlock@blockSize              cstackCOMRAM 000003
SPI1_ExchangeBlock@data                   cstackCOMRAM 000005
SPI1_ExchangeByte@data                    cstackCOMRAM 000001
SPI1_Open@spi1UniqueConfiguration         cstackCOMRAM 000002
Save_Data@F16661                          dataBANK1    0001E0
Save_Data@actualLength                    cstackBANK0  0000F8
Save_Data@newLine                         cstackBANK0  0000F5
Select_Page@select                        cstackCOMRAM 000001
Toggle_Select@Char                        cstackBANK0  00006F
Toggle_Select@line                        cstackBANK0  00006C
Toggle_Select@number                      cstackBANK0  00006A
Transmission_Settings@ContinuousChar      cstackBANK0  00006A
Transmission_Settings@SDloggingChar       cstackBANK0  00006B
UART1_Initialize@autoBaud                 cstackCOMRAM 000005
UART1_Initialize@baudRate                 cstackCOMRAM 000001
UART_Check_Comm_Start@message             cstackCOMRAM 000001
UART_Check_Command@i                      cstackBANK1  0001CD
UART_Check_Command@message                cstackBANK1  0001CC
UART_Command_Mapper@message               cstackBANK0  0000FF
UART_Cursor@position                      cstackCOMRAM 000002
UART_Line@line                            cstackCOMRAM 000002
UART_Message@i                            cstackBANK1  0001C7
UART_Message@message                      cstackBANK1  0001C9
UART_Page@page                            cstackCOMRAM 000004
UART_Print@line                           cstackBANK0  0000FF
_ANSELA                                   (abs)        003A40
_ANSELB                                   (abs)        003A50
_ANSELC                                   (abs)        003A60
_ANSELD                                   (abs)        003A70
_ANSELE                                   (abs)        003A80
_Auto_Boud                                text115      018658
_Auto_Boud_Setup                          text119      019352
_Baud_Rate_Settings                       text102      0188EC
_Baud_rate_Change                         text98       017CC4
_Baud_rate_Change$3996                    cstackBANK0  00007A
_Character_map                            mediumconst  00FBDD
_Command_Write                            text127      01A698
_Command_map                              mediumconst  00FED3
_Continous_Transmission_Length            text97       018D22
_ContinuousTransmission                   bssBANK1     00012D
_CurrVol                                  bssBANK1     00013E
_Cursor_Position                          text6        016670
_Cursor_delete                            text122      019B10
_Cursor_drawing                           text114      01988A
_Data_Write                               text124      01A676
_Display_Character                        text123      019D5A
_Display_Message                          text117      019CE8
_Error_Check                              text80       018ECC
_Error_Settings                           text96       018812
_Error_select_range                       text95       019774
_ExCvt                                    mediumconst  00FDB8
_FatFs                                    bssBANK1     000139
_Fsid                                     bssBANK1     000137
_GLCD_Clear                               text116      019A96
_GLCD_Initialise                          text125      01A0DE
_INLVLA                                   (abs)        003A44
_INLVLB                                   (abs)        003A54
_INLVLC                                   (abs)        003A64
_INLVLD                                   (abs)        003A74
_INLVLE                                   (abs)        003A84
_LATA                                     (abs)        003FBA
_LATAbits                                 (abs)        003FBA
_LATB                                     (abs)        003FBB
_LATC                                     (abs)        003FBC
_LATD                                     (abs)        003FBD
_LATE                                     (abs)        003FBE
_Logging_Check                            text16       01A2D8
_Maximum_Error_Select                     text94       018C4C
_Menu                                     text5        0195C6
_Menu_Logic                               text8        013752
_Minimum_Error_Select                     text93       018B76
_Number_Select                            text100      015704
_Number_Update                            text101      016C70
_ODCONA                                   (abs)        003A42
_ODCONB                                   (abs)        003A52
_ODCONC                                   (abs)        003A62
_ODCOND                                   (abs)        003A72
_ODCONE                                   (abs)        003A82
_OSCCON1                                  (abs)        0039D9
_OSCCON3                                  (abs)        0039DB
_OSCEN                                    (abs)        0039DD
_OSCFRQ                                   (abs)        0039DF
_OSCILLATOR_Initialize                    text4        01A6EE
_OSCTUNE                                  (abs)        0039DE
_PIN_MANAGER_Initialize                   text3        0192A8
_PIR2bits                                 (abs)        0039A2
_PIR3bits                                 (abs)        0039A3
_PORTAbits                                (abs)        003FCA
_PORTBbits                                (abs)        003FCB
_PORTD                                    (abs)        003FCD
_RB1I2C                                   (abs)        003A5A
_RB2I2C                                   (abs)        003A5B
_RC3I2C                                   (abs)        003A6A
_RC3PPS                                   (abs)        003A13
_RC4I2C                                   (abs)        003A6B
_RC5PPS                                   (abs)        003A15
_RD0I2C                                   (abs)        003A7A
_RD1I2C                                   (abs)        003A7B
_SDFAST_open                              text74       01A7B2
_SDSLOW_open                              text75       01A7BA
_SD_SPI_AsyncReadTasks                    text68       014ECC
_SD_SPI_AsyncWriteTasks                   text64       012574
_SD_SPI_DelayMilliseconds                 text58       019FC4
_SD_SPI_IsMediaInitialized                text54       01A706
_SD_SPI_IsMediaPresent                    text53       01A7CC
_SD_SPI_IsWriteProtected                  text52       01A7C8
_SD_SPI_MediaInitialize                   text56       011DB6
_SD_SPI_MediaInitialize$3995              cstackCOMRAM 000041
_SD_SPI_SectorRead                        text66       017F3C
_SD_SPI_SectorWrite                       text63       017E0C
_SD_SendCmd                               text71       014176
_SDlog                                    bssBANK1     00012F
_SLRCONA                                  (abs)        003A43
_SLRCONB                                  (abs)        003A53
_SLRCONC                                  (abs)        003A63
_SLRCOND                                  (abs)        003A73
_SLRCONE                                  (abs)        003A83
_SPI1BAUD                                 (abs)        003D19
_SPI1CLK                                  (abs)        003D1C
_SPI1CON0                                 (abs)        003D14
_SPI1CON0bits                             (abs)        003D14
_SPI1CON1                                 (abs)        003D15
_SPI1CON2                                 (abs)        003D16
_SPI1RXB                                  (abs)        003D10
_SPI1SCKPPS                               (abs)        003ADE
_SPI1SDIPPS                               (abs)        003ADF
_SPI1TCNTL                                (abs)        003D12
_SPI1TXB                                  (abs)        003D11
_SPI1_Close                               text67       01A7C2
_SPI1_ExchangeBlock                       text70       019EFE
_SPI1_ExchangeByte                        text73       01A652
_SPI1_Initialize                          text2        01A6BA
_SPI1_Open                                text76       018570
_SPI1_ReadBlock                           (abs)        000000
_SPI1_ReadByte                            (abs)        000000
_SPI1_WriteBlock                          (abs)        000000
_SPI1_WriteByte                           (abs)        000000
_SYSTEM_Initialize                        text1        01A790
_Save_Data                                text18       018398
_Select_Page                              text126      01A47E
_Settings_Menu                            text92       0196E6
_TRISA                                    (abs)        003FC2
_TRISB                                    (abs)        003FC3
_TRISC                                    (abs)        003FC4
_TRISCbits                                (abs)        003FC4
_TRISD                                    (abs)        003FC5
_TRISE                                    (abs)        003FC6
_Toggle_Select                            text91       018736
_Transmission_Settings                    text90       017B7A
_U1BRGH                                   (abs)        003DF6
_U1BRGL                                   (abs)        003DF5
_U1CON0                                   (abs)        003DF2
_U1CON1                                   (abs)        003DF3
_U1RXB                                    (abs)        003DE8
_U1RXPPS                                  (abs)        003AE5
_UART1_Initialize                         text121      01A3B2
_UART1_Read                               text120      01A71E
_UART_Check_Comm_Start                    text88       01A5D0
_UART_Check_Command                       text11       019E9A
_UART_Clear_Line                          text87       01A62C
_UART_Command_Mapper                      text12       018F98
_UART_Cursor                              text86       01A780
_UART_Line                                text85       01A770
_UART_Message                             text15       019802
_UART_Message_Lenght                      text14       01A75C
_UART_Page                                text13       01A6D4
_UART_Print                               text10       019060
_UART_Settings                            text89       019658
_UART_Start                               text9        01949C
_WPUA                                     (abs)        003A41
_WPUB                                     (abs)        003A51
_WPUC                                     (abs)        003A61
_WPUD                                     (abs)        003A71
_WPUE                                     (abs)        003A81
__HRAM                                    (abs)        000000
__Habs1                                   abs1         000000
__Hbank0                                  bank0        000000
__Hbank1                                  bank1        000000
__Hbank10                                 bank10       000000
__Hbank11                                 bank11       000000
__Hbank12                                 bank12       000000
__Hbank13                                 bank13       000000
__Hbank14                                 bank14       000000
__Hbank15                                 bank15       000000
__Hbank16                                 bank16       000000
__Hbank17                                 bank17       000000
__Hbank18                                 bank18       000000
__Hbank19                                 bank19       000000
__Hbank2                                  bank2        000000
__Hbank20                                 bank20       000000
__Hbank21                                 bank21       000000
__Hbank22                                 bank22       000000
__Hbank23                                 bank23       000000
__Hbank24                                 bank24       000000
__Hbank25                                 bank25       000000
__Hbank26                                 bank26       000000
__Hbank27                                 bank27       000000
__Hbank28                                 bank28       000000
__Hbank29                                 bank29       000000
__Hbank3                                  bank3        000000
__Hbank30                                 bank30       000000
__Hbank31                                 bank31       000000
__Hbank4                                  bank4        000000
__Hbank5                                  bank5        000000
__Hbank6                                  bank6        000000
__Hbank7                                  bank7        000000
__Hbank8                                  bank8        000000
__Hbank9                                  bank9        000000
__Hbigbss                                 bigbss       000000
__Hbigdata                                bigdata      000000
__Hbigram                                 bigram       000000
__Hbss                                    bss          000000
__HbssBANK1                               bssBANK1     000000
__HbssBIGRAM                              bssBIGRAM    000000
__Hcinit                                  cinit        000000
__Hclrtext                                clrtext      000000
__Hcomram                                 comram       000000
__Hconfig                                 config       30000A
__Hconst                                  const        000000
__HcstackBANK0                            cstackBANK0  000000
__HcstackBANK1                            cstackBANK1  000000
__HcstackCOMRAM                           cstackCOMRAM 000000
__Hdata                                   data         000000
__HdataBANK1                              dataBANK1    000000
__Heeprom_data                            eeprom_data  000000
__Hfarbss                                 farbss       000000
__Hfardata                                fardata      000000
__Hibigdata                               ibigdata     000000
__Hidata                                  idata        000000
__HidataBANK1                             idataBANK1   000000
__Hidloc                                  idloc        200010
__Hifardata                               ifardata     000000
__Hinit                                   init         020000
__Hintsave_regs                           intsave_regs 000000
__Hirdata                                 irdata       000000
__Hmediumconst                            mediumconst  010000
__HnvFARRAM                               nvFARRAM     000000
__Hnvbit                                  nvbit        000000
__Hnvrram                                 nvrram       000000
__Hparam                                  rparam       000000
__Hpowerup                                powerup      000000
__Hram                                    ram          000000
__Hramtop                                 ramtop       002000
__Hrbit                                   rbit         000000
__Hrbss                                   rbss         000000
__Hrdata                                  rdata        000000
__Hreset_vec                              reset_vec    000004
__Hrparam                                 rparam       000000
__Hsfr                                    sfr          000000
__Hsmallconst                             smallconst   000000
__Hspace_0                                (abs)        020000
__Hspace_1                                (abs)        002000
__Hspace_2                                (abs)        000000
__Hspace_4                                (abs)        60000A
__Hstack                                  stack        000000
__Hstruct                                 struct       000000
__Htemp                                   temp         000000
__Htext                                   text         000000
__Htext0                                  text0        000000
__Htext1                                  text1        000000
__Htext10                                 text10       000000
__Htext100                                text100      000000
__Htext101                                text101      000000
__Htext102                                text102      000000
__Htext103                                text103      000000
__Htext104                                text104      000000
__Htext105                                text105      000000
__Htext106                                text106      000000
__Htext107                                text107      000000
__Htext108                                text108      000000
__Htext109                                text109      000000
__Htext11                                 text11       000000
__Htext110                                text110      000000
__Htext111                                text111      000000
__Htext112                                text112      000000
__Htext113                                text113      000000
__Htext114                                text114      000000
__Htext115                                text115      000000
__Htext116                                text116      000000
__Htext117                                text117      000000
__Htext118                                text118      000000
__Htext119                                text119      000000
__Htext12                                 text12       000000
__Htext120                                text120      000000
__Htext121                                text121      000000
__Htext122                                text122      000000
__Htext123                                text123      000000
__Htext124                                text124      000000
__Htext125                                text125      000000
__Htext126                                text126      000000
__Htext127                                text127      000000
__Htext128                                text128      000000
__Htext13                                 text13       000000
__Htext14                                 text14       000000
__Htext15                                 text15       000000
__Htext16                                 text16       000000
__Htext17                                 text17       000000
__Htext18                                 text18       000000
__Htext19                                 text19       000000
__Htext2                                  text2        000000
__Htext20                                 text20       000000
__Htext21                                 text21       000000
__Htext22                                 text22       000000
__Htext23                                 text23       000000
__Htext24                                 text24       000000
__Htext25                                 text25       000000
__Htext26                                 text26       000000
__Htext27                                 text27       000000
__Htext28                                 text28       000000
__Htext29                                 text29       000000
__Htext3                                  text3        000000
__Htext30                                 text30       000000
__Htext31                                 text31       000000
__Htext32                                 text32       000000
__Htext33                                 text33       000000
__Htext34                                 text34       000000
__Htext35                                 text35       000000
__Htext36                                 text36       000000
__Htext37                                 text37       000000
__Htext38                                 text38       000000
__Htext39                                 text39       000000
__Htext4                                  text4        000000
__Htext40                                 text40       000000
__Htext41                                 text41       000000
__Htext42                                 text42       000000
__Htext43                                 text43       000000
__Htext44                                 text44       000000
__Htext45                                 text45       000000
__Htext46                                 text46       000000
__Htext47                                 text47       000000
__Htext48                                 text48       000000
__Htext49                                 text49       000000
__Htext5                                  text5        000000
__Htext50                                 text50       000000
__Htext51                                 text51       000000
__Htext52                                 text52       000000
__Htext53                                 text53       000000
__Htext54                                 text54       000000
__Htext55                                 text55       000000
__Htext56                                 text56       000000
__Htext57                                 text57       000000
__Htext58                                 text58       000000
__Htext59                                 text59       000000
__Htext6                                  text6        000000
__Htext60                                 text60       000000
__Htext61                                 text61       000000
__Htext62                                 text62       000000
__Htext63                                 text63       000000
__Htext64                                 text64       000000
__Htext65                                 text65       000000
__Htext66                                 text66       000000
__Htext67                                 text67       000000
__Htext68                                 text68       000000
__Htext69                                 text69       000000
__Htext7                                  text7        000000
__Htext70                                 text70       000000
__Htext71                                 text71       000000
__Htext72                                 text72       000000
__Htext73                                 text73       000000
__Htext74                                 text74       000000
__Htext75                                 text75       000000
__Htext76                                 text76       000000
__Htext77                                 text77       000000
__Htext78                                 text78       000000
__Htext79                                 text79       000000
__Htext8                                  text8        000000
__Htext80                                 text80       000000
__Htext81                                 text81       000000
__Htext82                                 text82       000000
__Htext83                                 text83       000000
__Htext84                                 text84       000000
__Htext85                                 text85       000000
__Htext86                                 text86       000000
__Htext87                                 text87       000000
__Htext88                                 text88       000000
__Htext89                                 text89       000000
__Htext9                                  text9        000000
__Htext90                                 text90       000000
__Htext91                                 text91       000000
__Htext92                                 text92       000000
__Htext93                                 text93       000000
__Htext94                                 text94       000000
__Htext95                                 text95       000000
__Htext96                                 text96       000000
__Htext97                                 text97       000000
__Htext98                                 text98       000000
__Htext99                                 text99       000000
__LRAM                                    (abs)        000001
__Labs1                                   abs1         000000
__Lbank0                                  bank0        000000
__Lbank1                                  bank1        000000
__Lbank10                                 bank10       000000
__Lbank11                                 bank11       000000
__Lbank12                                 bank12       000000
__Lbank13                                 bank13       000000
__Lbank14                                 bank14       000000
__Lbank15                                 bank15       000000
__Lbank16                                 bank16       000000
__Lbank17                                 bank17       000000
__Lbank18                                 bank18       000000
__Lbank19                                 bank19       000000
__Lbank2                                  bank2        000000
__Lbank20                                 bank20       000000
__Lbank21                                 bank21       000000
__Lbank22                                 bank22       000000
__Lbank23                                 bank23       000000
__Lbank24                                 bank24       000000
__Lbank25                                 bank25       000000
__Lbank26                                 bank26       000000
__Lbank27                                 bank27       000000
__Lbank28                                 bank28       000000
__Lbank29                                 bank29       000000
__Lbank3                                  bank3        000000
__Lbank30                                 bank30       000000
__Lbank31                                 bank31       000000
__Lbank4                                  bank4        000000
__Lbank5                                  bank5        000000
__Lbank6                                  bank6        000000
__Lbank7                                  bank7        000000
__Lbank8                                  bank8        000000
__Lbank9                                  bank9        000000
__Lbigbss                                 bigbss       000000
__Lbigdata                                bigdata      000000
__Lbigram                                 bigram       000000
__Lbss                                    bss          000000
__LbssBANK1                               bssBANK1     000000
__LbssBIGRAM                              bssBIGRAM    000000
__Lcinit                                  cinit        000000
__Lclrtext                                clrtext      000000
__Lcomram                                 comram       000000
__Lconfig                                 config       000000
__Lconst                                  const        000000
__LcstackBANK0                            cstackBANK0  000000
__LcstackBANK1                            cstackBANK1  000000
__LcstackCOMRAM                           cstackCOMRAM 000000
__Ldata                                   data         000000
__LdataBANK1                              dataBANK1    000000
__Leeprom_data                            eeprom_data  000000
__Lfarbss                                 farbss       000000
__Lfardata                                fardata      000000
__Libigdata                               ibigdata     000000
__Lidata                                  idata        000000
__LidataBANK1                             idataBANK1   000000
__Lidloc                                  idloc        000000
__Lifardata                               ifardata     000000
__Linit                                   init         01FFFC
__Lintsave_regs                           intsave_regs 000000
__Lirdata                                 irdata       000000
__Lmediumconst                            mediumconst  00FBDC
__LnvFARRAM                               nvFARRAM     000000
__Lnvbit                                  nvbit        000000
__Lnvrram                                 nvrram       000000
__Lparam                                  rparam       000000
__Lpowerup                                powerup      000000
__Lram                                    ram          000000
__Lramtop                                 ramtop       002000
__Lrbit                                   rbit         000000
__Lrbss                                   rbss         000000
__Lrdata                                  rdata        000000
__Lreset_vec                              reset_vec    000000
__Lrparam                                 rparam       000000
__Lsfr                                    sfr          000000
__Lsmallconst                             smallconst   000000
__Lspace_0                                (abs)        000000
__Lspace_1                                (abs)        000000
__Lspace_2                                (abs)        000000
__Lspace_4                                (abs)        000000
__Lstack                                  stack        000000
__Lstruct                                 struct       000000
__Ltemp                                   temp         000000
__Ltext                                   text         000000
__Ltext0                                  text0        000000
__Ltext1                                  text1        000000
__Ltext10                                 text10       000000
__Ltext100                                text100      000000
__Ltext101                                text101      000000
__Ltext102                                text102      000000
__Ltext103                                text103      000000
__Ltext104                                text104      000000
__Ltext105                                text105      000000
__Ltext106                                text106      000000
__Ltext107                                text107      000000
__Ltext108                                text108      000000
__Ltext109                                text109      000000
__Ltext11                                 text11       000000
__Ltext110                                text110      000000
__Ltext111                                text111      000000
__Ltext112                                text112      000000
__Ltext113                                text113      000000
__Ltext114                                text114      000000
__Ltext115                                text115      000000
__Ltext116                                text116      000000
__Ltext117                                text117      000000
__Ltext118                                text118      000000
__Ltext119                                text119      000000
__Ltext12                                 text12       000000
__Ltext120                                text120      000000
__Ltext121                                text121      000000
__Ltext122                                text122      000000
__Ltext123                                text123      000000
__Ltext124                                text124      000000
__Ltext125                                text125      000000
__Ltext126                                text126      000000
__Ltext127                                text127      000000
__Ltext128                                text128      000000
__Ltext13                                 text13       000000
__Ltext14                                 text14       000000
__Ltext15                                 text15       000000
__Ltext16                                 text16       000000
__Ltext17                                 text17       000000
__Ltext18                                 text18       000000
__Ltext19                                 text19       000000
__Ltext2                                  text2        000000
__Ltext20                                 text20       000000
__Ltext21                                 text21       000000
__Ltext22                                 text22       000000
__Ltext23                                 text23       000000
__Ltext24                                 text24       000000
__Ltext25                                 text25       000000
__Ltext26                                 text26       000000
__Ltext27                                 text27       000000
__Ltext28                                 text28       000000
__Ltext29                                 text29       000000
__Ltext3                                  text3        000000
__Ltext30                                 text30       000000
__Ltext31                                 text31       000000
__Ltext32                                 text32       000000
__Ltext33                                 text33       000000
__Ltext34                                 text34       000000
__Ltext35                                 text35       000000
__Ltext36                                 text36       000000
__Ltext37                                 text37       000000
__Ltext38                                 text38       000000
__Ltext39                                 text39       000000
__Ltext4                                  text4        000000
__Ltext40                                 text40       000000
__Ltext41                                 text41       000000
__Ltext42                                 text42       000000
__Ltext43                                 text43       000000
__Ltext44                                 text44       000000
__Ltext45                                 text45       000000
__Ltext46                                 text46       000000
__Ltext47                                 text47       000000
__Ltext48                                 text48       000000
__Ltext49                                 text49       000000
__Ltext5                                  text5        000000
__Ltext50                                 text50       000000
__Ltext51                                 text51       000000
__Ltext52                                 text52       000000
__Ltext53                                 text53       000000
__Ltext54                                 text54       000000
__Ltext55                                 text55       000000
__Ltext56                                 text56       000000
__Ltext57                                 text57       000000
__Ltext58                                 text58       000000
__Ltext59                                 text59       000000
__Ltext6                                  text6        000000
__Ltext60                                 text60       000000
__Ltext61                                 text61       000000
__Ltext62                                 text62       000000
__Ltext63                                 text63       000000
__Ltext64                                 text64       000000
__Ltext65                                 text65       000000
__Ltext66                                 text66       000000
__Ltext67                                 text67       000000
__Ltext68                                 text68       000000
__Ltext69                                 text69       000000
__Ltext7                                  text7        000000
__Ltext70                                 text70       000000
__Ltext71                                 text71       000000
__Ltext72                                 text72       000000
__Ltext73                                 text73       000000
__Ltext74                                 text74       000000
__Ltext75                                 text75       000000
__Ltext76                                 text76       000000
__Ltext77                                 text77       000000
__Ltext78                                 text78       000000
__Ltext79                                 text79       000000
__Ltext8                                  text8        000000
__Ltext80                                 text80       000000
__Ltext81                                 text81       000000
__Ltext82                                 text82       000000
__Ltext83                                 text83       000000
__Ltext84                                 text84       000000
__Ltext85                                 text85       000000
__Ltext86                                 text86       000000
__Ltext87                                 text87       000000
__Ltext88                                 text88       000000
__Ltext89                                 text89       000000
__Ltext9                                  text9        000000
__Ltext90                                 text90       000000
__Ltext91                                 text91       000000
__Ltext92                                 text92       000000
__Ltext93                                 text93       000000
__Ltext94                                 text94       000000
__Ltext95                                 text95       000000
__Ltext96                                 text96       000000
__Ltext97                                 text97       000000
__Ltext98                                 text98       000000
__Ltext99                                 text99       000000
__S0                                      (abs)        020000
__S1                                      (abs)        002000
__S2                                      (abs)        000000
__S4                                      (abs)        000000
__S5                                      (abs)        000000
___aldiv                                  text99       018192
___aldiv@counter                          cstackCOMRAM 000009
___aldiv@dividend                         cstackCOMRAM 000001
___aldiv@divisor                          cstackCOMRAM 000005
___aldiv@quotient                         cstackCOMRAM 00000B
___aldiv@sign                             cstackCOMRAM 00000A
___aodiv                                  text113      0172F0
___aodiv@counter                          cstackCOMRAM 000011
___aodiv@dividend                         cstackCOMRAM 000001
___aodiv@divisor                          cstackCOMRAM 000009
___aodiv@quotient                         cstackCOMRAM 000013
___aodiv@sign                             cstackCOMRAM 000012
___aomod                                  text112      01775E
___aomod@counter                          cstackCOMRAM 000011
___aomod@dividend                         cstackCOMRAM 000001
___aomod@divisor                          cstackCOMRAM 000009
___aomod@sign                             cstackCOMRAM 000012
___inthi_sp                               stack        000000
___intlo_sp                               stack        000000
___lldiv                                  text79       0193F8
___lldiv@counter                          cstackCOMRAM 00000D
___lldiv@dividend                         cstackCOMRAM 000001
___lldiv@divisor                          cstackCOMRAM 000005
___lldiv@quotient                         cstackCOMRAM 000009
___lmul                                   text57       019DC6
___lmul@multiplicand                      cstackCOMRAM 000005
___lmul@multiplier                        cstackCOMRAM 000001
___lmul@product                           cstackCOMRAM 000009
___param_bank                             (abs)        000000
___rparam_used                            (abs)        000001
___sp                                     stack        000000
___wmul                                   text84       01A602
___wmul@multiplicand                      cstackCOMRAM 000003
___wmul@multiplier                        cstackCOMRAM 000001
___wmul@product                           cstackCOMRAM 000005
__accesstop                               (abs)        000060
__activetblptr                            (abs)        000003
__end_of_Auto_Boud                        text115      018736
__end_of_Auto_Boud_Setup                  text119      0193F8
__end_of_Baud_Rate_Settings               text102      0189C6
__end_of_Baud_rate_Change                 text98       017E0C
__end_of_Character_map                    mediumconst  00FDB8
__end_of_Command_Write                    text127      01A6BA
__end_of_Command_map                      mediumconst  00FEDD
__end_of_Continous_Transmission_Length    text97       018DF8
__end_of_Cursor_Position                  text6        016896
__end_of_Cursor_delete                    text122      019B8A
__end_of_Cursor_drawing                   text114      019912
__end_of_Data_Write                       text124      01A698
__end_of_Display_Character                text123      019DC6
__end_of_Display_Message                  text117      019D5A
__end_of_Error_Check                      text80       018F98
__end_of_Error_Settings                   text96       0188EC
__end_of_Error_select_range               text95       019802
__end_of_ExCvt                            mediumconst  00FE38
__end_of_GLCD_Clear                       text116      019B10
__end_of_GLCD_Initialise                  text125      01A138
__end_of_Logging_Check                    text16       01A322
__end_of_Maximum_Error_Select             text94       018D22
__end_of_Menu                             text5        019658
__end_of_Menu_Logic                       text8        013CBE
__end_of_Minimum_Error_Select             text93       018C4C
__end_of_Number_Select                    text100      015A44
__end_of_Number_Update                    text101      016E22
__end_of_OSCILLATOR_Initialize            text4        01A706
__end_of_PIN_MANAGER_Initialize           text3        019352
__end_of_SDFAST_open                      text74       01A7BA
__end_of_SDSLOW_open                      text75       01A7C2
__end_of_SD_SPI_AsyncReadTasks            text68       015322
__end_of_SD_SPI_AsyncWriteTasks           text64       012C12
__end_of_SD_SPI_DelayMilliseconds         text58       01A026
__end_of_SD_SPI_IsMediaInitialized        text54       01A71E
__end_of_SD_SPI_IsMediaPresent            text53       01A7D0
__end_of_SD_SPI_IsWriteProtected          text52       01A7CC
__end_of_SD_SPI_MediaInitialize           text56       012574
__end_of_SD_SPI_SectorRead                text66       01806C
__end_of_SD_SPI_SectorWrite               text63       017F3C
__end_of_SD_SendCmd                       text71       014602
__end_of_SPI1_Close                       text67       01A7C8
__end_of_SPI1_ExchangeBlock               text70       019F62
__end_of_SPI1_ExchangeByte                text73       01A676
__end_of_SPI1_Initialize                  text2        01A6D4
__end_of_SPI1_Open                        text76       018658
__end_of_SYSTEM_Initialize                text1        01A79E
__end_of_Save_Data                        text18       018488
__end_of_Select_Page                      text126      01A4BE
__end_of_Settings_Menu                    text92       019774
__end_of_Toggle_Select                    text91       018812
__end_of_Transmission_Settings            text90       017CC4
__end_of_UART1_Initialize                 text121      01A3FA
__end_of_UART1_Read                       text120      01A734
__end_of_UART_Check_Comm_Start            text88       01A602
__end_of_UART_Check_Command               text11       019EFE
__end_of_UART_Clear_Line                  text87       01A652
__end_of_UART_Command_Mapper              text12       019060
__end_of_UART_Cursor                      text86       01A790
__end_of_UART_Line                        text85       01A780
__end_of_UART_Message                     text15       01988A
__end_of_UART_Message_Lenght              text14       01A770
__end_of_UART_Page                        text13       01A6EE
__end_of_UART_Print                       text10       019126
__end_of_UART_Settings                    text89       0196E6
__end_of_UART_Start                       text9        019532
__end_of___aldiv                          text99       01829E
__end_of___aodiv                          text113      017478
__end_of___aomod                          text112      0178C2
__end_of___lldiv                          text79       01949C
__end_of___lmul                           text57       019E30
__end_of___wmul                           text84       01A62C
__end_of__initialization                  cinit        01A364
__end_of_abs                              text111      01A47E
__end_of_atoi                             text81       017160
__end_of_check_fs                         text59       017A22
__end_of_chk_chr                          text33       019C00
__end_of_clst2sect                        text41       018A9E
__end_of_create_chain                     text42       0131E2
__end_of_create_name                      text30       014176
__end_of_dbc_1st                          text32       01A7B2
__end_of_dbc_2nd                          text31       01A7A8
__end_of_dir_alloc                        text36       01775E
__end_of_dir_clear                        text39       017B7A
__end_of_dir_find                         text29       016FC2
__end_of_dir_next                         text38       014A70
__end_of_dir_register                     text34       018398
__end_of_dir_sdi                          text37       015704
__end_of_disk_initialize                  text55       01A1E4
__end_of_disk_ioctl                       text23       01A5D0
__end_of_disk_read                        text65       019CE8
__end_of_disk_status                      text51       019A96
__end_of_disk_write                       text62       019C74
__end_of_dtoa                             text106      015D28
__end_of_f_close                          text7        01A084
__end_of_f_mount                          text47       018570
__end_of_f_open                           text24       011DB6
__end_of_f_sync                           text20       016446
__end_of_f_write                          text19       01158C
__end_of_find_volume                      text48       010D4E
__end_of_follow_path                      text27       015FE2
__end_of_fputc                            text109      018B76
__end_of_fputs                            text108      01A43E
__end_of_get_fat                          text46       014ECC
__end_of_get_ldnumber                     text50       0175F0
__end_of_isdigit                          text83       01A56A
__end_of_isspace                          text82       01A236
__end_of_ld_clust                         text28       019996
__end_of_ld_dword                         text49       0192A8
__end_of_ld_word                          text78       01A4FA
__end_of_main                             text0        01A75C
__end_of_mem_cmp                          text77       0195C6
__end_of_mem_cpy                          text35       019FC4
__end_of_mem_set                          text40       01A532
__end_of_memcpy                           text72       01A0DE
__end_of_memset                           text69       0172F0
__end_of_move_window                      text60       018ECC
__end_of_pad                              text107      0191EC
__end_of_put_fat                          text43       013752
__end_of_putch                            text110      01A7D2
__end_of_remove_chain                     text26       01621C
__end_of_sdmmc_cmdtable                   mediumconst  00FE88
__end_of_spi1_configuration               mediumconst  00FED3
__end_of_spiMaster                        mediumconst  00FEC4
__end_of_sprintf                          text103      01A288
__end_of_st_clust                         text25       01A2D8
__end_of_st_dword                         text45       019A1A
__end_of_st_word                          text44       01A59E
__end_of_strcpy                           text17       01A3B2
__end_of_strlen                           text118      01A190
__end_of_sync_fs                          text22       016670
__end_of_sync_window                      text61       016C70
__end_of_validate                         text21       018192
__end_of_vfpfcnvrt                        text105      016AAA
__end_of_vfprintf                         text104      019E9A
__initialization                          cinit        01A322
__mediumconst                             mediumconst  00FBDC
__pbssBANK1                               bssBANK1     000100
__pbssBIGRAM                              bssBIGRAM    001BAB
__pcinit                                  cinit        01A322
__pcstackBANK0                            cstackBANK0  000060
__pcstackBANK1                            cstackBANK1  000182
__pcstackCOMRAM                           cstackCOMRAM 000001
__pdataBANK1                              dataBANK1    0001D3
__pidataBANK1                             idataBANK1   01A734
__pmediumconst                            mediumconst  00FBDC
__ptext0                                  text0        01A748
__ptext1                                  text1        01A790
__ptext10                                 text10       019060
__ptext100                                text100      015704
__ptext101                                text101      016C70
__ptext102                                text102      0188EC
__ptext103                                text103      01A236
__ptext104                                text104      019E30
__ptext105                                text105      016896
__ptext106                                text106      015A44
__ptext107                                text107      019126
__ptext108                                text108      01A3FA
__ptext109                                text109      018A9E
__ptext11                                 text11       019E9A
__ptext110                                text110      01A7D0
__ptext111                                text111      01A43E
__ptext112                                text112      01775E
__ptext113                                text113      0172F0
__ptext114                                text114      01988A
__ptext115                                text115      018658
__ptext116                                text116      019A96
__ptext117                                text117      019CE8
__ptext118                                text118      01A138
__ptext119                                text119      019352
__ptext12                                 text12       018F98
__ptext120                                text120      01A71E
__ptext121                                text121      01A3B2
__ptext122                                text122      019B10
__ptext123                                text123      019D5A
__ptext124                                text124      01A676
__ptext125                                text125      01A0DE
__ptext126                                text126      01A47E
__ptext127                                text127      01A698
__ptext128                                text128      000000
__ptext13                                 text13       01A6D4
__ptext14                                 text14       01A75C
__ptext15                                 text15       019802
__ptext16                                 text16       01A2D8
__ptext17                                 text17       01A36A
__ptext18                                 text18       018398
__ptext19                                 text19       010D4E
__ptext2                                  text2        01A6BA
__ptext20                                 text20       01621C
__ptext21                                 text21       01806C
__ptext22                                 text22       016446
__ptext23                                 text23       01A59E
__ptext24                                 text24       01158C
__ptext25                                 text25       01A288
__ptext26                                 text26       015FE2
__ptext27                                 text27       015D28
__ptext28                                 text28       019912
__ptext29                                 text29       016E22
__ptext3                                  text3        0192A8
__ptext30                                 text30       013CBE
__ptext31                                 text31       01A79E
__ptext32                                 text32       01A7A8
__ptext33                                 text33       019B8A
__ptext34                                 text34       01829E
__ptext35                                 text35       019F62
__ptext36                                 text36       0175F0
__ptext37                                 text37       015322
__ptext38                                 text38       014602
__ptext39                                 text39       017A22
__ptext4                                  text4        01A6EE
__ptext40                                 text40       01A4FA
__ptext41                                 text41       0189C6
__ptext42                                 text42       012C12
__ptext43                                 text43       0131E2
__ptext44                                 text44       01A56A
__ptext45                                 text45       019996
__ptext46                                 text46       014A70
__ptext47                                 text47       018488
__ptext48                                 text48       010000
__ptext49                                 text49       0191EC
__ptext5                                  text5        0195C6
__ptext50                                 text50       017478
__ptext51                                 text51       019A1A
__ptext52                                 text52       01A7C8
__ptext53                                 text53       01A7CC
__ptext54                                 text54       01A706
__ptext55                                 text55       01A190
__ptext56                                 text56       011DB6
__ptext57                                 text57       019DC6
__ptext58                                 text58       019FC4
__ptext59                                 text59       0178C2
__ptext6                                  text6        016670
__ptext60                                 text60       018DF8
__ptext61                                 text61       016AAA
__ptext62                                 text62       019C00
__ptext63                                 text63       017E0C
__ptext64                                 text64       012574
__ptext65                                 text65       019C74
__ptext66                                 text66       017F3C
__ptext67                                 text67       01A7C2
__ptext68                                 text68       014ECC
__ptext69                                 text69       017160
__ptext7                                  text7        01A026
__ptext70                                 text70       019EFE
__ptext71                                 text71       014176
__ptext72                                 text72       01A084
__ptext73                                 text73       01A652
__ptext74                                 text74       01A7B2
__ptext75                                 text75       01A7BA
__ptext76                                 text76       018570
__ptext77                                 text77       019532
__ptext78                                 text78       01A4BE
__ptext79                                 text79       0193F8
__ptext8                                  text8        013752
__ptext80                                 text80       018ECC
__ptext81                                 text81       016FC2
__ptext82                                 text82       01A1E4
__ptext83                                 text83       01A532
__ptext84                                 text84       01A602
__ptext85                                 text85       01A770
__ptext86                                 text86       01A780
__ptext87                                 text87       01A62C
__ptext88                                 text88       01A5D0
__ptext89                                 text89       019658
__ptext9                                  text9        01949C
__ptext90                                 text90       017B7A
__ptext91                                 text91       018736
__ptext92                                 text92       0196E6
__ptext93                                 text93       018B76
__ptext94                                 text94       018C4C
__ptext95                                 text95       019774
__ptext96                                 text96       018812
__ptext97                                 text97       018D22
__ptext98                                 text98       017CC4
__ptext99                                 text99       018192
__ramtop                                  ramtop       002000
__size_of_Auto_Boud                       (abs)        000000
__size_of_Auto_Boud_Setup                 (abs)        000000
__size_of_Baud_Rate_Settings              (abs)        000000
__size_of_Baud_rate_Change                (abs)        000000
__size_of_Command_Write                   (abs)        000000
__size_of_Continous_Transmission_Length   (abs)        000000
__size_of_Cursor_Position                 (abs)        000000
__size_of_Cursor_delete                   (abs)        000000
__size_of_Cursor_drawing                  (abs)        000000
__size_of_Data_Write                      (abs)        000000
__size_of_Display_Character               (abs)        000000
__size_of_Display_Message                 (abs)        000000
__size_of_Error_Check                     (abs)        000000
__size_of_Error_Settings                  (abs)        000000
__size_of_Error_select_range              (abs)        000000
__size_of_GLCD_Clear                      (abs)        000000
__size_of_GLCD_Initialise                 (abs)        000000
__size_of_Logging_Check                   (abs)        000000
__size_of_Maximum_Error_Select            (abs)        000000
__size_of_Menu                            (abs)        000000
__size_of_Menu_Logic                      (abs)        000000
__size_of_Minimum_Error_Select            (abs)        000000
__size_of_Number_Select                   (abs)        000000
__size_of_Number_Update                   (abs)        000000
__size_of_OSCILLATOR_Initialize           (abs)        000000
__size_of_PIN_MANAGER_Initialize          (abs)        000000
__size_of_SDFAST_open                     (abs)        000000
__size_of_SDSLOW_open                     (abs)        000000
__size_of_SD_SPI_AsyncReadTasks           (abs)        000000
__size_of_SD_SPI_AsyncWriteTasks          (abs)        000000
__size_of_SD_SPI_DelayMilliseconds        (abs)        000000
__size_of_SD_SPI_IsMediaInitialized       (abs)        000000
__size_of_SD_SPI_IsMediaPresent           (abs)        000000
__size_of_SD_SPI_IsWriteProtected         (abs)        000000
__size_of_SD_SPI_MediaInitialize          (abs)        000000
__size_of_SD_SPI_SectorRead               (abs)        000000
__size_of_SD_SPI_SectorWrite              (abs)        000000
__size_of_SD_SendCmd                      (abs)        000000
__size_of_SPI1_Close                      (abs)        000000
__size_of_SPI1_ExchangeBlock              (abs)        000000
__size_of_SPI1_ExchangeByte               (abs)        000000
__size_of_SPI1_Initialize                 (abs)        000000
__size_of_SPI1_Open                       (abs)        000000
__size_of_SYSTEM_Initialize               (abs)        000000
__size_of_Save_Data                       (abs)        000000
__size_of_Select_Page                     (abs)        000000
__size_of_Settings_Menu                   (abs)        000000
__size_of_Toggle_Select                   (abs)        000000
__size_of_Transmission_Settings           (abs)        000000
__size_of_UART1_Initialize                (abs)        000000
__size_of_UART1_Read                      (abs)        000000
__size_of_UART_Check_Comm_Start           (abs)        000000
__size_of_UART_Check_Command              (abs)        000000
__size_of_UART_Clear_Line                 (abs)        000000
__size_of_UART_Command_Mapper             (abs)        000000
__size_of_UART_Cursor                     (abs)        000000
__size_of_UART_Line                       (abs)        000000
__size_of_UART_Message                    (abs)        000000
__size_of_UART_Message_Lenght             (abs)        000000
__size_of_UART_Page                       (abs)        000000
__size_of_UART_Print                      (abs)        000000
__size_of_UART_Settings                   (abs)        000000
__size_of_UART_Start                      (abs)        000000
__size_of___aldiv                         (abs)        000000
__size_of___aodiv                         (abs)        000000
__size_of___aomod                         (abs)        000000
__size_of___lldiv                         (abs)        000000
__size_of___lmul                          (abs)        000000
__size_of___wmul                          (abs)        000000
__size_of_abs                             (abs)        000000
__size_of_atoi                            (abs)        000000
__size_of_check_fs                        (abs)        000000
__size_of_chk_chr                         (abs)        000000
__size_of_clst2sect                       (abs)        000000
__size_of_create_chain                    (abs)        000000
__size_of_create_name                     (abs)        000000
__size_of_dbc_1st                         (abs)        000000
__size_of_dbc_2nd                         (abs)        000000
__size_of_dir_alloc                       (abs)        000000
__size_of_dir_clear                       (abs)        000000
__size_of_dir_find                        (abs)        000000
__size_of_dir_next                        (abs)        000000
__size_of_dir_register                    (abs)        000000
__size_of_dir_sdi                         (abs)        000000
__size_of_disk_initialize                 (abs)        000000
__size_of_disk_ioctl                      (abs)        000000
__size_of_disk_read                       (abs)        000000
__size_of_disk_status                     (abs)        000000
__size_of_disk_write                      (abs)        000000
__size_of_dtoa                            (abs)        000000
__size_of_f_close                         (abs)        000000
__size_of_f_mount                         (abs)        000000
__size_of_f_open                          (abs)        000000
__size_of_f_sync                          (abs)        000000
__size_of_f_write                         (abs)        000000
__size_of_find_volume                     (abs)        000000
__size_of_follow_path                     (abs)        000000
__size_of_fputc                           (abs)        000000
__size_of_fputs                           (abs)        000000
__size_of_get_fat                         (abs)        000000
__size_of_get_ldnumber                    (abs)        000000
__size_of_isdigit                         (abs)        000000
__size_of_isspace                         (abs)        000000
__size_of_ld_clust                        (abs)        000000
__size_of_ld_dword                        (abs)        000000
__size_of_ld_word                         (abs)        000000
__size_of_main                            (abs)        000000
__size_of_mem_cmp                         (abs)        000000
__size_of_mem_cpy                         (abs)        000000
__size_of_mem_set                         (abs)        000000
__size_of_memcpy                          (abs)        000000
__size_of_memset                          (abs)        000000
__size_of_move_window                     (abs)        000000
__size_of_pad                             (abs)        000000
__size_of_put_fat                         (abs)        000000
__size_of_putch                           (abs)        000000
__size_of_remove_chain                    (abs)        000000
__size_of_sprintf                         (abs)        000000
__size_of_st_clust                        (abs)        000000
__size_of_st_dword                        (abs)        000000
__size_of_st_word                         (abs)        000000
__size_of_strcpy                          (abs)        000000
__size_of_strlen                          (abs)        000000
__size_of_sync_fs                         (abs)        000000
__size_of_sync_window                     (abs)        000000
__size_of_validate                        (abs)        000000
__size_of_vfpfcnvrt                       (abs)        000000
__size_of_vfprintf                        (abs)        000000
__smallconst                              smallconst   000000
_abs                                      text111      01A43E
_atoi                                     text81       016FC2
_atoi$3402                                cstackCOMRAM 000010
_atoi$3403                                cstackCOMRAM 000014
_atoi$3404                                cstackCOMRAM 000012
_autoBaud                                 bssBANK1     000129
_baudRate                                 dataBANK1    0001DC
_baudRateSelect                           bssBANK1     00017E
_check_fs                                 text59       0178C2
_chk_chr                                  text33       019B8A
_clst2sect                                text41       0189C6
_commStart                                bssBANK1     000131
_create_chain                             text42       012C12
_create_name                              text30       013CBE
_create_name$811                          cstackCOMRAM 000011
_create_name$816                          cstackCOMRAM 000013
_dbc_1st                                  text32       01A7A8
_dbc_2nd                                  text31       01A79E
_dbuf                                     bssBANK1     00013F
_dir_alloc                                text36       0175F0
_dir_clear                                text39       017A22
_dir_find                                 text29       016E22
_dir_next                                 text38       014602
_dir_register                             text34       01829E
_dir_sdi                                  text37       015322
_disk_initialize                          text55       01A190
_disk_ioctl                               text23       01A59E
_disk_read                                text65       019C74
_disk_status                              text51       019A1A
_disk_write                               text62       019C00
_drive                                    bssBIGRAM    001BAB
_dtoa                                     text106      015A44
_dtoa$3507                                cstackCOMRAM 00002E
_errorCheck                               bssBANK1     00012B
_errorMax                                 bssBANK1     000111
_errorMin                                 bssBANK1     00010D
_f_close                                  text7        01A026
_f_mount                                  text47       018488
_f_open                                   text24       01158C
_f_sync                                   text20       01621C
_f_write                                  text19       010D4E
_f_write$1263                             cstackBANK0  0000C8
_file                                     bssBIGRAM    001DDE
_find_volume                              text48       010000
_find_volume$947                          cstackBANK0  00009A
_find_volume$948                          cstackBANK0  00009E
_flags                                    bssBANK1     000127
_follow_path                              text27       015D28
_fputc                                    text109      018A9E
_fputs                                    text108      01A3FA
_get_fat                                  text46       014A70
_get_fat$427                              cstackBANK0  000085
_get_ldnumber                             text50       017478
_ioInfo                                   bssBANK1     000100
_isdigit                                  text83       01A532
_isspace                                  text82       01A1E4
_isspace$3420                             cstackCOMRAM 000007
_ld_clust                                 text28       019912
_ld_dword                                 text49       0191EC
_ld_word                                  text78       01A4BE
_length                                   bssBANK1     000115
_main                                     text0        01A748
_mediaInformation                         dataBANK1    0001D3
_mem_cmp                                  text77       019532
_mem_cpy                                  text35       019F62
_mem_set                                  text40       01A4FA
_memcpy                                   text72       01A084
_memset                                   text69       017160
_menu_page                                dataBANK1    0001E5
_menu_select                              dataBANK1    0001E3
_messageStr                               bssBANK1     00015F
_move_window                              text60       018DF8
_nout                                     bssBANK1     000121
_numberDisplayed                          bssBANK1     000177
_pad                                      text107      019126
_prec                                     bssBANK1     000125
_put_fat                                  text43       0131E2
_put_fat$456                              cstackBANK0  00008E
_put_fat$457                              cstackBANK0  000090
_putch                                    text110      01A7D0
_remove_chain                             text26       015FE2
_savedMessage                             bssBANK1     00016B
_sdmmc_cmdtable                           mediumconst  00FE38
_spi1_configuration                       mediumconst  00FEC4
_spiMaster                                mediumconst  00FE88
_sprintf                                  text103      01A236
_st_clust                                 text25       01A288
_st_dword                                 text45       019996
_st_word                                  text44       01A56A
_strcpy                                   text17       01A36A
_strlen                                   text118      01A138
_sync_fs                                  text22       016446
_sync_window                              text61       016AAA
_validate                                 text21       01806C
_validate$979                             cstackCOMRAM 00000D
_vfpfcnvrt                                text105      016896
_vfprintf                                 text104      019E30
_width                                    bssBANK1     000123
abs@a                                     cstackCOMRAM 000013
atoi@n                                    cstackCOMRAM 000015
atoi@neg                                  cstackCOMRAM 00000E
atoi@s                                    cstackCOMRAM 000008
check_fs@fs                               cstackBANK0  000076
check_fs@sect                             cstackBANK0  000078
chk_chr@chr                               cstackCOMRAM 000003
chk_chr@str                               cstackCOMRAM 000001
clst2sect@clst                            cstackCOMRAM 00000F
clst2sect@fs                              cstackCOMRAM 00000D
create_chain@clst                         cstackBANK0  000099
create_chain@cs                           cstackBANK0  0000B0
create_chain@fs                           cstackBANK0  0000AE
create_chain@ncl                          cstackBANK0  0000AA
create_chain@obj                          cstackBANK0  000097
create_chain@res                          cstackBANK0  0000A5
create_chain@scl                          cstackBANK0  0000A6
create_name@c                             cstackCOMRAM 000020
create_name@d                             cstackCOMRAM 000015
create_name@dp                            cstackCOMRAM 000009
create_name@i                             cstackCOMRAM 00001A
create_name@ni                            cstackCOMRAM 000016
create_name@p                             cstackCOMRAM 000018
create_name@path                          cstackCOMRAM 00000B
create_name@sfn                           cstackCOMRAM 00001C
create_name@si                            cstackCOMRAM 00001E
dbc_1st@c                                 cstackCOMRAM 000003
dbc_2nd@c                                 cstackCOMRAM 000003
dir_alloc@dp                              cstackBANK0  0000D2
dir_alloc@fs                              cstackBANK0  0000D9
dir_alloc@n                               cstackBANK0  0000DB
dir_alloc@nent                            cstackBANK0  0000D4
dir_alloc@res                             cstackBANK0  0000DD
dir_clear@clst                            cstackBANK0  000072
dir_clear@fs                              cstackBANK0  000070
dir_clear@ibuf                            cstackBANK0  000076
dir_clear@n                               cstackBANK0  00007E
dir_clear@sect                            cstackBANK0  000078
dir_clear@szb                             cstackBANK0  00007C
dir_find@c                                cstackBANK0  0000D8
dir_find@dp                               cstackBANK0  0000D2
dir_find@fs                               cstackBANK0  0000D6
dir_find@res                              cstackBANK0  0000D9
dir_next@clst                             cstackBANK0  0000CE
dir_next@dp                               cstackBANK0  0000B4
dir_next@fs                               cstackBANK0  0000CC
dir_next@ofs                              cstackBANK0  0000C8
dir_next@stretch                          cstackBANK0  0000B6
dir_register@dp                           cstackBANK0  0000DE
dir_register@fs                           cstackBANK0  0000E0
dir_register@res                          cstackBANK0  0000E2
dir_sdi@clst                              cstackBANK0  0000A9
dir_sdi@csz                               cstackBANK0  0000A5
dir_sdi@dp                                cstackBANK0  000091
dir_sdi@fs                                cstackBANK0  0000AD
dir_sdi@ofs                               cstackBANK0  000093
disk_initialize@pdrv                      cstackCOMRAM 000056
disk_initialize@stat                      cstackCOMRAM 000057
disk_ioctl@buff                           cstackCOMRAM 000002
disk_ioctl@cmd                            cstackCOMRAM 000001
disk_ioctl@pdrv                           cstackCOMRAM 000006
disk_read@buff                            cstackCOMRAM 000049
disk_read@count                           cstackCOMRAM 00004F
disk_read@pdrv                            cstackCOMRAM 000053
disk_read@res                             cstackCOMRAM 000054
disk_read@sector                          cstackCOMRAM 00004B
disk_status@pdrv                          cstackCOMRAM 000003
disk_status@stat                          cstackCOMRAM 000004
disk_write@buff                           cstackCOMRAM 00004C
disk_write@count                          cstackCOMRAM 000052
disk_write@pdrv                           cstackCOMRAM 000056
disk_write@res                            cstackCOMRAM 000057
disk_write@sector                         cstackCOMRAM 00004E
dtoa@d                                    cstackCOMRAM 00001E
dtoa@fp                                   cstackCOMRAM 00001C
dtoa@i                                    cstackCOMRAM 00003E
dtoa@n                                    cstackCOMRAM 000036
dtoa@p                                    cstackCOMRAM 000030
dtoa@s                                    cstackCOMRAM 000034
dtoa@w                                    cstackCOMRAM 000032
end_of_initialization                     cinit        01A364
f_close@fp                                cstackBANK0  000083
f_close@fs                                cstackBANK0  000085
f_close@res                               cstackBANK0  000087
f_mount@cfs                               cstackBANK0  0000CC
f_mount@fs                                cstackBANK0  0000C4
f_mount@opt                               cstackBANK0  0000C8
f_mount@path                              cstackBANK0  0000C6
f_mount@res                               cstackBANK0  0000C9
f_mount@rp                                cstackBANK0  0000CA
f_mount@vol                               cstackBANK0  0000CE
f_open@bcs                                cstackBANK1  00018C
f_open@cl                                 cstackBANK1  000190
f_open@clst                               cstackBANK1  000198
f_open@dj                                 cstackBANK1  00019F
f_open@dw                                 cstackBANK1  000182
f_open@fp                                 cstackBANK0  0000E8
f_open@fs                                 cstackBANK1  00019C
f_open@mode                               cstackBANK0  0000EC
f_open@ofs                                cstackBANK1  000194
f_open@path                               cstackBANK0  0000EA
f_open@res                                cstackBANK1  00019E
f_open@sc                                 cstackBANK1  000186
f_sync@dir                                cstackBANK0  00007F
f_sync@fp                                 cstackBANK0  000078
f_sync@fs                                 cstackBANK0  000081
f_sync@res                                cstackBANK0  00007E
f_write@btw                               cstackBANK0  0000B8
f_write@buff                              cstackBANK0  0000B6
f_write@bw                                cstackBANK0  0000BA
f_write@cc                                cstackBANK0  0000D1
f_write@clst                              cstackBANK0  0000D7
f_write@csect                             cstackBANK0  0000CF
f_write@fp                                cstackBANK0  0000B4
f_write@fs                                cstackBANK0  0000DD
f_write@res                               cstackBANK0  0000CC
f_write@sect                              cstackBANK0  0000D3
f_write@wbuff                             cstackBANK0  0000CD
f_write@wcnt                              cstackBANK0  0000DB
find_volume@br                            cstackBANK0  00008A
find_volume@bsect                         cstackBANK0  0000BB
find_volume@fasize                        cstackBANK0  0000B7
find_volume@fmt                           cstackBANK0  0000C1
find_volume@fs                            cstackBANK0  0000C2
find_volume@i                             cstackBANK0  0000BF
find_volume@mode                          cstackBANK0  000081
find_volume@nclst                         cstackBANK0  0000B3
find_volume@nrsv                          cstackBANK0  0000AC
find_volume@path                          cstackBANK0  00007D
find_volume@pt                            cstackBANK0  0000A4
find_volume@rfs                           cstackBANK0  00007F
find_volume@stat                          cstackBANK0  0000B2
find_volume@sysect                        cstackBANK0  0000A6
find_volume@szbfat                        cstackBANK0  0000A0
find_volume@tsect                         cstackBANK0  0000AE
find_volume@vol                           cstackBANK0  0000AA
follow_path@dp                            cstackBANK0  0000DA
follow_path@fs                            cstackBANK0  0000E4
follow_path@ns                            cstackBANK0  0000E6
follow_path@path                          cstackBANK0  0000DC
follow_path@res                           cstackBANK0  0000E7
fputc@c                                   cstackCOMRAM 000001
fputc@fp                                  cstackCOMRAM 000003
fputs@c                                   cstackCOMRAM 00000E
fputs@fp                                  cstackCOMRAM 00000C
fputs@i                                   cstackCOMRAM 00000F
fputs@s                                   cstackCOMRAM 00000A
get_fat@bc                                cstackBANK0  00008D
get_fat@clst                              cstackBANK0  000078
get_fat@fs                                cstackBANK0  00008F
get_fat@obj                               cstackBANK0  000076
get_fat@val                               cstackBANK0  000087
get_fat@wc                                cstackBANK0  00008B
get_ldnumber@i                            cstackCOMRAM 000007
get_ldnumber@path                         cstackCOMRAM 000001
get_ldnumber@tc                           cstackCOMRAM 00000B
get_ldnumber@tp                           cstackCOMRAM 00000E
get_ldnumber@tt                           cstackCOMRAM 000009
get_ldnumber@vol                          cstackCOMRAM 00000C
intlevel0                                 text         000000
intlevel1                                 text         000000
intlevel2                                 text         000000
intlevel3                                 text         000000
isdigit@c                                 cstackCOMRAM 000001
isspace@c                                 cstackCOMRAM 000001
ld_clust@cl                               cstackCOMRAM 000010
ld_clust@dir                              cstackCOMRAM 00000A
ld_clust@fs                               cstackCOMRAM 000008
ld_dword@ptr                              cstackCOMRAM 000001
ld_dword@rv                               cstackCOMRAM 00000A
ld_word@ptr                               cstackCOMRAM 000001
ld_word@rv                                cstackCOMRAM 000006
mem_cmp@cnt                               cstackCOMRAM 000005
mem_cmp@d                                 cstackCOMRAM 000009
mem_cmp@dst                               cstackCOMRAM 000001
mem_cmp@r                                 cstackCOMRAM 00000D
mem_cmp@s                                 cstackCOMRAM 00000B
mem_cmp@src                               cstackCOMRAM 000003
mem_cpy@cnt                               cstackCOMRAM 000005
mem_cpy@d                                 cstackCOMRAM 000007
mem_cpy@dst                               cstackCOMRAM 000001
mem_cpy@s                                 cstackCOMRAM 000009
mem_cpy@src                               cstackCOMRAM 000003
mem_set@cnt                               cstackCOMRAM 000005
mem_set@d                                 cstackCOMRAM 000007
mem_set@dst                               cstackCOMRAM 000001
mem_set@val                               cstackCOMRAM 000003
memcpy@d                                  cstackCOMRAM 000007
memcpy@d1                                 cstackCOMRAM 000001
memcpy@n                                  cstackCOMRAM 000005
memcpy@s                                  cstackCOMRAM 000009
memcpy@s1                                 cstackCOMRAM 000003
memcpy@tmp                                cstackCOMRAM 00000B
memset@c                                  cstackCOMRAM 000003
memset@dest                               cstackCOMRAM 000001
memset@k                                  cstackCOMRAM 000009
memset@n                                  cstackCOMRAM 000005
memset@s                                  cstackCOMRAM 00000B
move_window@fs                            cstackBANK0  000070
move_window@res                           cstackCOMRAM 00005F
move_window@sector                        cstackBANK0  000072
pad@buf                                   cstackCOMRAM 000013
pad@fp                                    cstackCOMRAM 000011
pad@i                                     cstackCOMRAM 000018
pad@p                                     cstackCOMRAM 000015
pad@w                                     cstackCOMRAM 00001A
put_fat@bc                                cstackBANK0  000094
put_fat@clst                              cstackBANK0  000078
put_fat@fs                                cstackBANK0  000076
put_fat@p                                 cstackBANK0  000092
put_fat@res                               cstackBANK0  000096
put_fat@val                               cstackBANK0  00007C
remove_chain@clst                         cstackBANK0  000099
remove_chain@fs                           cstackBANK0  0000AE
remove_chain@nxt                          cstackBANK0  0000A9
remove_chain@obj                          cstackBANK0  000097
remove_chain@pclst                        cstackBANK0  00009D
remove_chain@res                          cstackBANK0  0000AD
sprintf@ap                                cstackBANK0  000062
sprintf@f                                 cstackBANK0  000064
sprintf@fmt                               cstackCOMRAM 00005A
sprintf@s                                 cstackCOMRAM 000058
st_clust@cl                               cstackCOMRAM 000009
st_clust@dir                              cstackCOMRAM 000007
st_clust@fs                               cstackCOMRAM 000005
st_dword@ptr                              cstackCOMRAM 000001
st_dword@val                              cstackCOMRAM 000003
st_word@ptr                               cstackCOMRAM 000001
st_word@val                               cstackCOMRAM 000003
stackhi                                   (abs)        001BAA
stacklo                                   (abs)        0001E7
start                                     init         01FFFC
start_initialization                      cinit        01A322
strcpy@d                                  cstackCOMRAM 000007
strcpy@dest                               cstackCOMRAM 000001
strcpy@s                                  cstackCOMRAM 000005
strcpy@src                                cstackCOMRAM 000003
strlen@a                                  cstackCOMRAM 000003
strlen@s                                  cstackCOMRAM 000001
sync_fs@fs                                cstackCOMRAM 00005B
sync_fs@res                               cstackCOMRAM 00005D
sync_window@fs                            cstackCOMRAM 000058
sync_window@res                           cstackCOMRAM 00005A
validate@obj                              cstackCOMRAM 000005
validate@res                              cstackCOMRAM 00000F
validate@rfs                              cstackCOMRAM 000007
vfpfcnvrt@ap                              cstackCOMRAM 000044
vfpfcnvrt@fmt                             cstackCOMRAM 000042
vfpfcnvrt@fp                              cstackCOMRAM 000040
vfpfcnvrt@ll                              cstackCOMRAM 000048
vfprintf@ap                               cstackCOMRAM 000054
vfprintf@cfmt                             cstackCOMRAM 000056
vfprintf@fmt                              cstackCOMRAM 000052
vfprintf@fp                               cstackCOMRAM 000050


FUNCTION INFORMATION:

 *************** function _main *****************
 Defined at:
		line 864 in file "main.c"
 Parameters:    Size  Location     Type
		None
 Auto vars:     Size  Location     Type
		None
 Return value:  Size  Location     Type
                  1    wreg      void 
 Registers used:
		wreg, fsr0l, fsr0h, fsr1l, fsr1h, fsr2l, fsr2h, status,2, status,0, pclath, tosl, tblptrl, tblptrh, tblptru, prodl, prodh, cstack
 Tracked objects:
		On entry : 
		On exit  : 
		Unchanged: 
 Data sizes:     COMRAM   BANK0   BANK1   BANK2   BANK3   BANK4   BANK5   BANK6   BANK7   BANK8   BANK9  BANK10  BANK11  BANK12  BANK13  BANK14  BANK15  BANK16  BANK17  BANK18  BANK19  BANK20  BANK21  BANK22  BANK23  BANK24  BANK25  BANK26  BANK27  BANK28  BANK29  BANK30  BANK31
      Params:         0       0       0       0       0       0       0       0       0       0       0       0       0       0       0       0       0       0       0       0       0       0       0       0       0       0       0       0       0       0       0       0       0
      Locals:         0       0       0       0       0       0       0       0       0       0       0       0       0       0       0       0       0       0       0       0       0       0       0       0       0       0       0       0       0       0       0       0       0
      Temps:          0       0       0       0       0       0       0       0       0       0       0       0       0       0       0       0       0       0       0       0       0       0       0       0       0       0       0       0       0       0       0       0       0
      Totals:         0       0       0       0       0       0       0       0       0       0       0       0       0       0       0       0       0       0       0       0       0       0       0       0       0       0       0       0       0       0       0       0       0
Total ram usage:        0 bytes
 Hardware stack levels required when called:   22
 This function calls:
		_GLCD_Clear
		_GLCD_Initialise
		_Menu
		_SYSTEM_Initialize
 This function is called by:
		Startup code after reset
 This function uses a non-reentrant model


 *************** function _SYSTEM_Initialize *****************
 Defined at:
		line 50 in file "mcc_generated_files/mcc.c"
 Parameters:    Size  Location     Type
		None
 Auto vars:     Size  Location     Type
		None
 Return value:  Size  Location     Type
                  1    wreg      void 
 Registers used:
		wreg, status,2, cstack
 Tracked objects:
		On entry : 
		On exit  : 
		Unchanged: 
 Data sizes:     COMRAM   BANK0   BANK1   BANK2   BANK3   BANK4   BANK5   BANK6   BANK7   BANK8   BANK9  BANK10  BANK11  BANK12  BANK13  BANK14  BANK15  BANK16  BANK17  BANK18  BANK19  BANK20  BANK21  BANK22  BANK23  BANK24  BANK25  BANK26  BANK27  BANK28  BANK29  BANK30  BANK31
      Params:         0       0       0       0       0       0       0       0       0       0       0       0       0       0       0       0       0       0       0       0       0       0       0       0       0       0       0       0       0       0       0       0       0
      Locals:         0       0       0       0       0       0       0       0       0       0       0       0       0       0       0       0       0       0       0       0       0       0       0       0       0       0       0       0       0       0       0       0       0
      Temps:          0       0       0       0       0       0       0       0       0       0       0       0       0       0       0       0       0       0       0       0       0       0       0       0       0       0       0       0       0       0       0       0       0
      Totals:         0       0       0       0       0       0       0       0       0       0       0       0       0       0       0       0       0       0       0       0       0       0       0       0       0       0       0       0       0       0       0       0       0
Total ram usage:        0 bytes
 Hardware stack levels used:    1
 Hardware stack levels required when called:    1
 This function calls:
		_OSCILLATOR_Initialize
		_PIN_MANAGER_Initialize
		_SPI1_Initialize
 This function is called by:
		_main
 This function uses a non-reentrant model


 *************** function _SPI1_Initialize *****************
 Defined at:
		line 66 in file "mcc_generated_files/spi1.c"
 Parameters:    Size  Location     Type
		None
 Auto vars:     Size  Location     Type
		None
 Return value:  Size  Location     Type
                  1    wreg      void 
 Registers used:
		wreg, status,2
 Tracked objects:
		On entry : 
		On exit  : 
		Unchanged: 
 Data sizes:     COMRAM   BANK0   BANK1   BANK2   BANK3   BANK4   BANK5   BANK6   BANK7   BANK8   BANK9  BANK10  BANK11  BANK12  BANK13  BANK14  BANK15  BANK16  BANK17  BANK18  BANK19  BANK20  BANK21  BANK22  BANK23  BANK24  BANK25  BANK26  BANK27  BANK28  BANK29  BANK30  BANK31
      Params:         0       0       0       0       0       0       0       0       0       0       0       0       0       0       0       0       0       0       0       0       0       0       0       0       0       0       0       0       0       0       0       0       0
      Locals:         0       0       0       0       0       0       0       0       0       0       0       0       0       0       0       0       0       0       0       0       0       0       0       0       0       0       0       0       0       0       0       0       0
      Temps:          0       0       0       0       0       0       0       0       0       0       0       0       0       0       0       0       0       0       0       0       0       0       0       0       0       0       0       0       0       0       0       0       0
      Totals:         0       0       0       0       0       0       0       0       0       0       0       0       0       0       0       0       0       0       0       0       0       0       0       0       0       0       0       0       0       0       0       0       0
Total ram usage:        0 bytes
 Hardware stack levels used:    1
 This function calls:
		Nothing
 This function is called by:
		_SYSTEM_Initialize
 This function uses a non-reentrant model


 *************** function _PIN_MANAGER_Initialize *****************
 Defined at:
		line 55 in file "mcc_generated_files/pin_manager.c"
 Parameters:    Size  Location     Type
		None
 Auto vars:     Size  Location     Type
		None
 Return value:  Size  Location     Type
                  1    wreg      void 
 Registers used:
		wreg, status,2
 Tracked objects:
		On entry : 
		On exit  : 
		Unchanged: 
 Data sizes:     COMRAM   BANK0   BANK1   BANK2   BANK3   BANK4   BANK5   BANK6   BANK7   BANK8   BANK9  BANK10  BANK11  BANK12  BANK13  BANK14  BANK15  BANK16  BANK17  BANK18  BANK19  BANK20  BANK21  BANK22  BANK23  BANK24  BANK25  BANK26  BANK27  BANK28  BANK29  BANK30  BANK31
      Params:         0       0       0       0       0       0       0       0       0       0       0       0       0       0       0       0       0       0       0       0       0       0       0       0       0       0       0       0       0       0       0       0       0
      Locals:         0       0       0       0       0       0       0       0       0       0       0       0       0       0       0       0       0       0       0       0       0       0       0       0       0       0       0       0       0       0       0       0       0
      Temps:          0       0       0       0       0       0       0       0       0       0       0       0       0       0       0       0       0       0       0       0       0       0       0       0       0       0       0       0       0       0       0       0       0
      Totals:         0       0       0       0       0       0       0       0       0       0       0       0       0       0       0       0       0       0       0       0       0       0       0       0       0       0       0       0       0       0       0       0       0
Total ram usage:        0 bytes
 Hardware stack levels used:    1
 This function calls:
		Nothing
 This function is called by:
		_SYSTEM_Initialize
 This function uses a non-reentrant model


 *************** function _OSCILLATOR_Initialize *****************
 Defined at:
		line 57 in file "mcc_generated_files/mcc.c"
 Parameters:    Size  Location     Type
		None
 Auto vars:     Size  Location     Type
		None
 Return value:  Size  Location     Type
                  1    wreg      void 
 Registers used:
		wreg, status,2
 Tracked objects:
		On entry : 
		On exit  : 
		Unchanged: 
 Data sizes:     COMRAM   BANK0   BANK1   BANK2   BANK3   BANK4   BANK5   BANK6   BANK7   BANK8   BANK9  BANK10  BANK11  BANK12  BANK13  BANK14  BANK15  BANK16  BANK17  BANK18  BANK19  BANK20  BANK21  BANK22  BANK23  BANK24  BANK25  BANK26  BANK27  BANK28  BANK29  BANK30  BANK31
      Params:         0       0       0       0       0       0       0       0       0       0       0       0       0       0       0       0       0       0       0       0       0       0       0       0       0       0       0       0       0       0       0       0       0
      Locals:         0       0       0       0       0       0       0       0       0       0       0       0       0       0       0       0       0       0       0       0       0       0       0       0       0       0       0       0       0       0       0       0       0
      Temps:          0       0       0       0       0       0       0       0       0       0       0       0       0       0       0       0       0       0       0       0       0       0       0       0       0       0       0       0       0       0       0       0       0
      Totals:         0       0       0       0       0       0       0       0       0       0       0       0       0       0       0       0       0       0       0       0       0       0       0       0       0       0       0       0       0       0       0       0       0
Total ram usage:        0 bytes
 Hardware stack levels used:    1
 This function calls:
		Nothing
 This function is called by:
		_SYSTEM_Initialize
 This function uses a non-reentrant model


 *************** function _Menu *****************
 Defined at:
		line 23 in file "main.c"
 Parameters:    Size  Location     Type
		None
 Auto vars:     Size  Location     Type
		None
 Return value:  Size  Location     Type
                  1    wreg      void 
 Registers used:
		wreg, fsr0l, fsr0h, fsr1l, fsr1h, fsr2l, fsr2h, status,2, status,0, pclath, tosl, tblptrl, tblptrh, tblptru, prodl, prodh, cstack
 Tracked objects:
		On entry : 
		On exit  : 
		Unchanged: 
 Data sizes:     COMRAM   BANK0   BANK1   BANK2   BANK3   BANK4   BANK5   BANK6   BANK7   BANK8   BANK9  BANK10  BANK11  BANK12  BANK13  BANK14  BANK15  BANK16  BANK17  BANK18  BANK19  BANK20  BANK21  BANK22  BANK23  BANK24  BANK25  BANK26  BANK27  BANK28  BANK29  BANK30  BANK31
      Params:         0       0       0       0       0       0       0       0       0       0       0       0       0       0       0       0       0       0       0       0       0       0       0       0       0       0       0       0       0       0       0       0       0
      Locals:         0       0       0       0       0       0       0       0       0       0       0       0       0       0       0       0       0       0       0       0       0       0       0       0       0       0       0       0       0       0       0       0       0
      Temps:          0       0       0       0       0       0       0       0       0       0       0       0       0       0       0       0       0       0       0       0       0       0       0       0       0       0       0       0       0       0       0       0       0
      Totals:         0       0       0       0       0       0       0       0       0       0       0       0       0       0       0       0       0       0       0       0       0       0       0       0       0       0       0       0       0       0       0       0       0
Total ram usage:        0 bytes
 Hardware stack levels used:    1
 Hardware stack levels required when called:   21
 This function calls:
		_Command_Write
		_Cursor_Position
		_Display_Message
		_GLCD_Clear
		_Select_Page
 This function is called by:
		_main
 This function uses a non-reentrant model


 *************** function _Cursor_Position *****************
 Defined at:
		line 827 in file "main.c"
 Parameters:    Size  Location     Type
		None
 Auto vars:     Size  Location     Type
		None
 Return value:  Size  Location     Type
                  1    wreg      void 
 Registers used:
		wreg, fsr0l, fsr0h, fsr1l, fsr1h, fsr2l, fsr2h, status,2, status,0, pclath, tosl, tblptrl, tblptrh, tblptru, prodl, prodh, cstack
 Tracked objects:
		On entry : 
		On exit  : 
		Unchanged: 
 Data sizes:     COMRAM   BANK0   BANK1   BANK2   BANK3   BANK4   BANK5   BANK6   BANK7   BANK8   BANK9  BANK10  BANK11  BANK12  BANK13  BANK14  BANK15  BANK16  BANK17  BANK18  BANK19  BANK20  BANK21  BANK22  BANK23  BANK24  BANK25  BANK26  BANK27  BANK28  BANK29  BANK30  BANK31
      Params:         0       0       0       0       0       0       0       0       0       0       0       0       0       0       0       0       0       0       0       0       0       0       0       0       0       0       0       0       0       0       0       0       0
      Locals:         0       0       0       0       0       0       0       0       0       0       0       0       0       0       0       0       0       0       0       0       0       0       0       0       0       0       0       0       0       0       0       0       0
      Temps:          0       0       2       0       0       0       0       0       0       0       0       0       0       0       0       0       0       0       0       0       0       0       0       0       0       0       0       0       0       0       0       0       0
      Totals:         0       0       2       0       0       0       0       0       0       0       0       0       0       0       0       0       0       0       0       0       0       0       0       0       0       0       0       0       0       0       0       0       0
Total ram usage:        2 bytes
 Hardware stack levels used:    1
 Hardware stack levels required when called:   20
 This function calls:
		_Cursor_delete
		_Cursor_drawing
		_GLCD_Clear
		_Menu_Logic
		_f_close
		_f_mount
 This function is called by:
		_Menu
 This function uses a non-reentrant model


 *************** function _f_close *****************
 Defined at:
		line 4012 in file "mcc_generated_files/fatfs/ff.c"
 Parameters:    Size  Location     Type
  fp              2   35[BANK0 ] PTR struct .
		 -> file(546), 
 Auto vars:     Size  Location     Type
  fs              2   37[BANK0 ] PTR struct .
		 -> drive(563), NULL(0), 
  res             1   39[BANK0 ] enum E68
 Return value:  Size  Location     Type
                  1    wreg      enum E68
 Registers used:
		wreg, fsr0l, fsr0h, fsr1l, fsr1h, fsr2l, fsr2h, status,2, status,0, pclath, tosl, tblptrl, tblptrh, tblptru, prodl, prodh, cstack
 Tracked objects:
		On entry : 
		On exit  : 
		Unchanged: 
 Data sizes:     COMRAM   BANK0   BANK1   BANK2   BANK3   BANK4   BANK5   BANK6   BANK7   BANK8   BANK9  BANK10  BANK11  BANK12  BANK13  BANK14  BANK15  BANK16  BANK17  BANK18  BANK19  BANK20  BANK21  BANK22  BANK23  BANK24  BANK25  BANK26  BANK27  BANK28  BANK29  BANK30  BANK31
      Params:         0       2       0       0       0       0       0       0       0       0       0       0       0       0       0       0       0       0       0       0       0       0       0       0       0       0       0       0       0       0       0       0       0
      Locals:         0       3       0       0       0       0       0       0       0       0       0       0       0       0       0       0       0       0       0       0       0       0       0       0       0       0       0       0       0       0       0       0       0
      Temps:          0       0       0       0       0       0       0       0       0       0       0       0       0       0       0       0       0       0       0       0       0       0       0       0       0       0       0       0       0       0       0       0       0
      Totals:         0       5       0       0       0       0       0       0       0       0       0       0       0       0       0       0       0       0       0       0       0       0       0       0       0       0       0       0       0       0       0       0       0
Total ram usage:        5 bytes
 Hardware stack levels used:    1
 Hardware stack levels required when called:    8
 This function calls:
		_f_sync
		_validate
 This function is called by:
		_Cursor_Position
 This function uses a non-reentrant model


 *************** function _Menu_Logic *****************
 Defined at:
		line 689 in file "main.c"
 Parameters:    Size  Location     Type
		None
 Auto vars:     Size  Location     Type
		None
 Return value:  Size  Location     Type
                  1    wreg      void 
 Registers used:
		wreg, fsr0l, fsr0h, fsr1l, fsr1h, fsr2l, fsr2h, status,2, status,0, pclath, tosl, tblptrl, tblptrh, tblptru, prodl, prodh, cstack
 Tracked objects:
		On entry : 
		On exit  : 
		Unchanged: 
 Data sizes:     COMRAM   BANK0   BANK1   BANK2   BANK3   BANK4   BANK5   BANK6   BANK7   BANK8   BANK9  BANK10  BANK11  BANK12  BANK13  BANK14  BANK15  BANK16  BANK17  BANK18  BANK19  BANK20  BANK21  BANK22  BANK23  BANK24  BANK25  BANK26  BANK27  BANK28  BANK29  BANK30  BANK31
      Params:         0       0       0       0       0       0       0       0       0       0       0       0       0       0       0       0       0       0       0       0       0       0       0       0       0       0       0       0       0       0       0       0       0
      Locals:         0       0       0       0       0       0       0       0       0       0       0       0       0       0       0       0       0       0       0       0       0       0       0       0       0       0       0       0       0       0       0       0       0
      Temps:          0       0       2       0       0       0       0       0       0       0       0       0       0       0       0       0       0       0       0       0       0       0       0       0       0       0       0       0       0       0       0       0       0
      Totals:         0       0       2       0       0       0       0       0       0       0       0       0       0       0       0       0       0       0       0       0       0       0       0       0       0       0       0       0       0       0       0       0       0
Total ram usage:        2 bytes
 Hardware stack levels used:    1
 Hardware stack levels required when called:   19
 This function calls:
		_Auto_Boud
		_Baud_Rate_Settings
		_Baud_rate_Change
		_Continous_Transmission_Length
		_Error_Settings
		_Error_select_range
		_Maximum_Error_Select
		_Minimum_Error_Select
		_Settings_Menu
		_Toggle_Select
		_Transmission_Settings
		_UART_Settings
		_UART_Start
 This function is called by:
		_Cursor_Position
 This function uses a non-reentrant model


 *************** function _UART_Start *****************
 Defined at:
		line 251 in file "main.c"
 Parameters:    Size  Location     Type
		None
 Auto vars:     Size  Location     Type
		None
 Return value:  Size  Location     Type
                  1    wreg      void 
 Registers used:
		wreg, fsr0l, fsr0h, fsr1l, fsr1h, fsr2l, fsr2h, status,2, status,0, pclath, tosl, tblptrl, tblptrh, tblptru, prodl, prodh, cstack
 Tracked objects:
		On entry : 
		On exit  : 
		Unchanged: 
 Data sizes:     COMRAM   BANK0   BANK1   BANK2   BANK3   BANK4   BANK5   BANK6   BANK7   BANK8   BANK9  BANK10  BANK11  BANK12  BANK13  BANK14  BANK15  BANK16  BANK17  BANK18  BANK19  BANK20  BANK21  BANK22  BANK23  BANK24  BANK25  BANK26  BANK27  BANK28  BANK29  BANK30  BANK31
      Params:         0       0       0       0       0       0       0       0       0       0       0       0       0       0       0       0       0       0       0       0       0       0       0       0       0       0       0       0       0       0       0       0       0
      Locals:         0       0       0       0       0       0       0       0       0       0       0       0       0       0       0       0       0       0       0       0       0       0       0       0       0       0       0       0       0       0       0       0       0
      Temps:          0       0       0       0       0       0       0       0       0       0       0       0       0       0       0       0       0       0       0       0       0       0       0       0       0       0       0       0       0       0       0       0       0
      Totals:         0       0       0       0       0       0       0       0       0       0       0       0       0       0       0       0       0       0       0       0       0       0       0       0       0       0       0       0       0       0       0       0       0
Total ram usage:        0 bytes
 Hardware stack levels used:    1
 Hardware stack levels required when called:   18
 This function calls:
		_GLCD_Clear
		_UART1_Initialize
		_UART_Check_Comm_Start
		_UART_Check_Command
		_UART_Print
 This function is called by:
		_Menu_Logic
 This function uses a non-reentrant model


 *************** function _UART_Print *****************
 Defined at:
		line 210 in file "main.c"
 Parameters:    Size  Location     Type
		None
 Auto vars:     Size  Location     Type
  line            1  159[BANK0 ] unsigned char 
  data            1    0        unsigned char 
 Return value:  Size  Location     Type
                  1    wreg      void 
 Registers used:
		wreg, fsr0l, fsr0h, fsr1l, fsr1h, fsr2l, fsr2h, status,2, status,0, pclath, tosl, tblptrl, tblptrh, tblptru, prodl, prodh, cstack
 Tracked objects:
		On entry : 
		On exit  : 
		Unchanged: 
 Data sizes:     COMRAM   BANK0   BANK1   BANK2   BANK3   BANK4   BANK5   BANK6   BANK7   BANK8   BANK9  BANK10  BANK11  BANK12  BANK13  BANK14  BANK15  BANK16  BANK17  BANK18  BANK19  BANK20  BANK21  BANK22  BANK23  BANK24  BANK25  BANK26  BANK27  BANK28  BANK29  BANK30  BANK31
      Params:         0       0       0       0       0       0       0       0       0       0       0       0       0       0       0       0       0       0       0       0       0       0       0       0       0       0       0       0       0       0       0       0       0
      Locals:         0       1       0       0       0       0       0       0       0       0       0       0       0       0       0       0       0       0       0       0       0       0       0       0       0       0       0       0       0       0       0       0       0
      Temps:          0       0       0       0       0       0       0       0       0       0       0       0       0       0       0       0       0       0       0       0       0       0       0       0       0       0       0       0       0       0       0       0       0
      Totals:         0       1       0       0       0       0       0       0       0       0       0       0       0       0       0       0       0       0       0       0       0       0       0       0       0       0       0       0       0       0       0       0       0
Total ram usage:        1 bytes
 Hardware stack levels used:    1
 Hardware stack levels required when called:   16
 This function calls:
		_Command_Write
		_GLCD_Clear
		_Select_Page
		_UART_Message
 This function is called by:
		_UART_Start
 This function uses a non-reentrant model


 *************** function _UART_Check_Command *****************
 Defined at:
		line 198 in file "main.c"
 Parameters:    Size  Location     Type
		None
 Auto vars:     Size  Location     Type
  i               2   75[BANK1 ] int 
  message         1   74[BANK1 ] unsigned char 
 Return value:  Size  Location     Type
                  1    wreg      void 
 Registers used:
		wreg, fsr0l, fsr0h, fsr1l, fsr1h, fsr2l, fsr2h, status,2, status,0, pclath, tosl, tblptrl, tblptrh, tblptru, prodl, prodh, cstack
 Tracked objects:
		On entry : 
		On exit  : 
		Unchanged: 
 Data sizes:     COMRAM   BANK0   BANK1   BANK2   BANK3   BANK4   BANK5   BANK6   BANK7   BANK8   BANK9  BANK10  BANK11  BANK12  BANK13  BANK14  BANK15  BANK16  BANK17  BANK18  BANK19  BANK20  BANK21  BANK22  BANK23  BANK24  BANK25  BANK26  BANK27  BANK28  BANK29  BANK30  BANK31
      Params:         0       0       0       0       0       0       0       0       0       0       0       0       0       0       0       0       0       0       0       0       0       0       0       0       0       0       0       0       0       0       0       0       0
      Locals:         0       0       3       0       0       0       0       0       0       0       0       0       0       0       0       0       0       0       0       0       0       0       0       0       0       0       0       0       0       0       0       0       0
      Temps:          0       0       0       0       0       0       0       0       0       0       0       0       0       0       0       0       0       0       0       0       0       0       0       0       0       0       0       0       0       0       0       0       0
      Totals:         0       0       3       0       0       0       0       0       0       0       0       0       0       0       0       0       0       0       0       0       0       0       0       0       0       0       0       0       0       0       0       0       0
Total ram usage:        3 bytes
 Hardware stack levels used:    1
 Hardware stack levels required when called:   17
 This function calls:
		_UART1_Read
		_UART_Command_Mapper
 This function is called by:
		_UART_Start
 This function uses a non-reentrant model


 *************** function _UART_Command_Mapper *****************
 Defined at:
		line 172 in file "main.c"
 Parameters:    Size  Location     Type
  message         1    wreg     unsigned char 
 Auto vars:     Size  Location     Type
  message         1  159[BANK0 ] unsigned char 
 Return value:  Size  Location     Type
                  1    wreg      void 
 Registers used:
		wreg, fsr0l, fsr0h, fsr1l, fsr1h, fsr2l, fsr2h, status,2, status,0, pclath, tosl, tblptrl, tblptrh, tblptru, prodl, prodh, cstack
 Tracked objects:
		On entry : 
		On exit  : 
		Unchanged: 
 Data sizes:     COMRAM   BANK0   BANK1   BANK2   BANK3   BANK4   BANK5   BANK6   BANK7   BANK8   BANK9  BANK10  BANK11  BANK12  BANK13  BANK14  BANK15  BANK16  BANK17  BANK18  BANK19  BANK20  BANK21  BANK22  BANK23  BANK24  BANK25  BANK26  BANK27  BANK28  BANK29  BANK30  BANK31
      Params:         0       0       0       0       0       0       0       0       0       0       0       0       0       0       0       0       0       0       0       0       0       0       0       0       0       0       0       0       0       0       0       0       0
      Locals:         0       1       0       0       0       0       0       0       0       0       0       0       0       0       0       0       0       0       0       0       0       0       0       0       0       0       0       0       0       0       0       0       0
      Temps:          0       0       2       0       0       0       0       0       0       0       0       0       0       0       0       0       0       0       0       0       0       0       0       0       0       0       0       0       0       0       0       0       0
      Totals:         0       1       2       0       0       0       0       0       0       0       0       0       0       0       0       0       0       0       0       0       0       0       0       0       0       0       0       0       0       0       0       0       0
Total ram usage:        3 bytes
 Hardware stack levels used:    1
 Hardware stack levels required when called:   16
 This function calls:
		_GLCD_Clear
		_UART_Clear_Line
		_UART_Cursor
		_UART_Line
		_UART_Message
		_UART_Message_Lenght
		_UART_Page
 This function is called by:
		_UART_Check_Command
 This function uses a non-reentrant model


 *************** function _UART_Page *****************
 Defined at:
		line 154 in file "main.c"
 Parameters:    Size  Location     Type
		None
 Auto vars:     Size  Location     Type
  page            2    3[COMRAM] int 
 Return value:  Size  Location     Type
                  1    wreg      void 
 Registers used:
		wreg, status,2, status,0, cstack
 Tracked objects:
		On entry : 
		On exit  : 
		Unchanged: 
 Data sizes:     COMRAM   BANK0   BANK1   BANK2   BANK3   BANK4   BANK5   BANK6   BANK7   BANK8   BANK9  BANK10  BANK11  BANK12  BANK13  BANK14  BANK15  BANK16  BANK17  BANK18  BANK19  BANK20  BANK21  BANK22  BANK23  BANK24  BANK25  BANK26  BANK27  BANK28  BANK29  BANK30  BANK31
      Params:         0       0       0       0       0       0       0       0       0       0       0       0       0       0       0       0       0       0       0       0       0       0       0       0       0       0       0       0       0       0       0       0       0
      Locals:         2       0       0       0       0       0       0       0       0       0       0       0       0       0       0       0       0       0       0       0       0       0       0       0       0       0       0       0       0       0       0       0       0
      Temps:          1       0       0       0       0       0       0       0       0       0       0       0       0       0       0       0       0       0       0       0       0       0       0       0       0       0       0       0       0       0       0       0       0
      Totals:         3       0       0       0       0       0       0       0       0       0       0       0       0       0       0       0       0       0       0       0       0       0       0       0       0       0       0       0       0       0       0       0       0
Total ram usage:        3 bytes
 Hardware stack levels used:    1
 Hardware stack levels required when called:    1
 This function calls:
		_Select_Page
		_UART1_Read
 This function is called by:
		_UART_Command_Mapper
 This function uses a non-reentrant model


 *************** function _UART_Message_Lenght *****************
 Defined at:
		line 161 in file "main.c"
 Parameters:    Size  Location     Type
		None
 Auto vars:     Size  Location     Type
		None
 Return value:  Size  Location     Type
                  1    wreg      void 
 Registers used:
		wreg, status,2, status,0, cstack
 Tracked objects:
		On entry : 
		On exit  : 
		Unchanged: 
 Data sizes:     COMRAM   BANK0   BANK1   BANK2   BANK3   BANK4   BANK5   BANK6   BANK7   BANK8   BANK9  BANK10  BANK11  BANK12  BANK13  BANK14  BANK15  BANK16  BANK17  BANK18  BANK19  BANK20  BANK21  BANK22  BANK23  BANK24  BANK25  BANK26  BANK27  BANK28  BANK29  BANK30  BANK31
      Params:         0       0       0       0       0       0       0       0       0       0       0       0       0       0       0       0       0       0       0       0       0       0       0       0       0       0       0       0       0       0       0       0       0
      Locals:         0       0       0       0       0       0       0       0       0       0       0       0       0       0       0       0       0       0       0       0       0       0       0       0       0       0       0       0       0       0       0       0       0
      Temps:          1       0       0       0       0       0       0       0       0       0       0       0       0       0       0       0       0       0       0       0       0       0       0       0       0       0       0       0       0       0       0       0       0
      Totals:         1       0       0       0       0       0       0       0       0       0       0       0       0       0       0       0       0       0       0       0       0       0       0       0       0       0       0       0       0       0       0       0       0
Total ram usage:        1 bytes
 Hardware stack levels used:    1
 Hardware stack levels required when called:    1
 This function calls:
		_UART1_Read
 This function is called by:
		_UART_Command_Mapper
 This function uses a non-reentrant model


 *************** function _UART_Message *****************
 Defined at:
		line 128 in file "main.c"
 Parameters:    Size  Location     Type
		None
 Auto vars:     Size  Location     Type
  i               2   69[BANK1 ] int 
  message         1   71[BANK1 ] unsigned char 
 Return value:  Size  Location     Type
                  1    wreg      void 
 Registers used:
		wreg, fsr0l, fsr0h, fsr1l, fsr1h, fsr2l, fsr2h, status,2, status,0, pclath, tosl, tblptrl, tblptrh, tblptru, prodl, prodh, cstack
 Tracked objects:
		On entry : 
		On exit  : 
		Unchanged: 
 Data sizes:     COMRAM   BANK0   BANK1   BANK2   BANK3   BANK4   BANK5   BANK6   BANK7   BANK8   BANK9  BANK10  BANK11  BANK12  BANK13  BANK14  BANK15  BANK16  BANK17  BANK18  BANK19  BANK20  BANK21  BANK22  BANK23  BANK24  BANK25  BANK26  BANK27  BANK28  BANK29  BANK30  BANK31
      Params:         0       0       0       0       0       0       0       0       0       0       0       0       0       0       0       0       0       0       0       0       0       0       0       0       0       0       0       0       0       0       0       0       0
      Locals:         0       0       3       0       0       0       0       0       0       0       0       0       0       0       0       0       0       0       0       0       0       0       0       0       0       0       0       0       0       0       0       0       0
      Temps:          0       5       0       0       0       0       0       0       0       0       0       0       0       0       0       0       0       0       0       0       0       0       0       0       0       0       0       0       0       0       0       0       0
      Totals:         0       5       3       0       0       0       0       0       0       0       0       0       0       0       0       0       0       0       0       0       0       0       0       0       0       0       0       0       0       0       0       0       0
Total ram usage:        8 bytes
 Hardware stack levels used:    1
 Hardware stack levels required when called:   15
 This function calls:
		_Display_Character
		_Error_Check
		_Logging_Check
		_UART1_Read
 This function is called by:
		_UART_Command_Mapper
		_UART_Print
 This function uses a non-reentrant model


 *************** function _Logging_Check *****************
 Defined at:
		line 120 in file "main.c"
 Parameters:    Size  Location     Type
		None
 Auto vars:     Size  Location     Type
		None
 Return value:  Size  Location     Type
                  1    wreg      void 
 Registers used:
		wreg, fsr0l, fsr0h, fsr1l, fsr1h, fsr2l, fsr2h, status,2, status,0, pclath, tosl, tblptrl, tblptrh, tblptru, prodl, prodh, cstack
 Tracked objects:
		On entry : 
		On exit  : 
		Unchanged: 
 Data sizes:     COMRAM   BANK0   BANK1   BANK2   BANK3   BANK4   BANK5   BANK6   BANK7   BANK8   BANK9  BANK10  BANK11  BANK12  BANK13  BANK14  BANK15  BANK16  BANK17  BANK18  BANK19  BANK20  BANK21  BANK22  BANK23  BANK24  BANK25  BANK26  BANK27  BANK28  BANK29  BANK30  BANK31
      Params:         0       0       0       0       0       0       0       0       0       0       0       0       0       0       0       0       0       0       0       0       0       0       0       0       0       0       0       0       0       0       0       0       0
      Locals:         0       0       0       0       0       0       0       0       0       0       0       0       0       0       0       0       0       0       0       0       0       0       0       0       0       0       0       0       0       0       0       0       0
      Temps:          0       0       0       0       0       0       0       0       0       0       0       0       0       0       0       0       0       0       0       0       0       0       0       0       0       0       0       0       0       0       0       0       0
      Totals:         0       0       0       0       0       0       0       0       0       0       0       0       0       0       0       0       0       0       0       0       0       0       0       0       0       0       0       0       0       0       0       0       0
Total ram usage:        0 bytes
 Hardware stack levels used:    1
 Hardware stack levels required when called:   14
 This function calls:
		_Save_Data
		_memset
		_strcpy
 This function is called by:
		_UART_Message
 This function uses a non-reentrant model


 *************** function _strcpy *****************
 Defined at:
		line 3 in file "C:\Program Files\Microchip\xc8\v2.31\pic\sources\c99\common\strcpy.c"
 Parameters:    Size  Location     Type
  dest            2    0[COMRAM] PTR unsigned char 
		 -> savedMessage(12), 
  src             2    2[COMRAM] PTR const unsigned char 
		 -> messageStr(12), 
 Auto vars:     Size  Location     Type
  d               2    6[COMRAM] PTR unsigned char 
		 -> savedMessage(12), 
  s               2    4[COMRAM] PTR const unsigned char 
		 -> messageStr(12), 
 Return value:  Size  Location     Type
                  2    0[COMRAM] PTR unsigned char 
 Registers used:
		wreg, fsr1l, fsr1h, fsr2l, fsr2h, status,2, status,0
 Tracked objects:
		On entry : 
		On exit  : 
		Unchanged: 
 Data sizes:     COMRAM   BANK0   BANK1   BANK2   BANK3   BANK4   BANK5   BANK6   BANK7   BANK8   BANK9  BANK10  BANK11  BANK12  BANK13  BANK14  BANK15  BANK16  BANK17  BANK18  BANK19  BANK20  BANK21  BANK22  BANK23  BANK24  BANK25  BANK26  BANK27  BANK28  BANK29  BANK30  BANK31
      Params:         4       0       0       0       0       0       0       0       0       0       0       0       0       0       0       0       0       0       0       0       0       0       0       0       0       0       0       0       0       0       0       0       0
      Locals:         4       0       0       0       0       0       0       0       0       0       0       0       0       0       0       0       0       0       0       0       0       0       0       0       0       0       0       0       0       0       0       0       0
      Temps:          0       0       0       0       0       0       0       0       0       0       0       0       0       0       0       0       0       0       0       0       0       0       0       0       0       0       0       0       0       0       0       0       0
      Totals:         8       0       0       0       0       0       0       0       0       0       0       0       0       0       0       0       0       0       0       0       0       0       0       0       0       0       0       0       0       0       0       0       0
Total ram usage:        8 bytes
 Hardware stack levels used:    1
 This function calls:
		Nothing
 This function is called by:
		_Logging_Check
 This function uses a non-reentrant model


 *************** function _Save_Data *****************
 Defined at:
		line 6 in file "main.c"
 Parameters:    Size  Location     Type
		None
 Auto vars:     Size  Location     Type
  newLine         3  149[BANK0 ] unsigned char [3]
  actualLength    2  152[BANK0 ] unsigned int 
 Return value:  Size  Location     Type
                  1    wreg      void 
 Registers used:
		wreg, fsr0l, fsr0h, fsr1l, fsr1h, fsr2l, fsr2h, status,2, status,0, pclath, tosl, tblptrl, tblptrh, tblptru, prodl, prodh, cstack
 Tracked objects:
		On entry : 
		On exit  : 
		Unchanged: 
 Data sizes:     COMRAM   BANK0   BANK1   BANK2   BANK3   BANK4   BANK5   BANK6   BANK7   BANK8   BANK9  BANK10  BANK11  BANK12  BANK13  BANK14  BANK15  BANK16  BANK17  BANK18  BANK19  BANK20  BANK21  BANK22  BANK23  BANK24  BANK25  BANK26  BANK27  BANK28  BANK29  BANK30  BANK31
      Params:         0       0       0       0       0       0       0       0       0       0       0       0       0       0       0       0       0       0       0       0       0       0       0       0       0       0       0       0       0       0       0       0       0
      Locals:         0       5       0       0       0       0       0       0       0       0       0       0       0       0       0       0       0       0       0       0       0       0       0       0       0       0       0       0       0       0       0       0       0
      Temps:          0       0       0       0       0       0       0       0       0       0       0       0       0       0       0       0       0       0       0       0       0       0       0       0       0       0       0       0       0       0       0       0       0
      Totals:         0       5       0       0       0       0       0       0       0       0       0       0       0       0       0       0       0       0       0       0       0       0       0       0       0       0       0       0       0       0       0       0       0
Total ram usage:        5 bytes
 Hardware stack levels used:    1
 Hardware stack levels required when called:   13
 This function calls:
		_SD_SPI_IsMediaPresent
		_f_mount
		_f_open
		_f_sync
		_f_write
		_memset
 This function is called by:
		_Logging_Check
 This function uses a non-reentrant model


 *************** function _f_write *****************
 Defined at:
		line 3810 in file "mcc_generated_files/fatfs/ff.c"
 Parameters:    Size  Location     Type
  fp              2   84[BANK0 ] PTR struct .
		 -> file(546), 
  buff            2   86[BANK0 ] PTR const void 
		 -> savedMessage(12), Save_Data@newLine(3), 
  btw             2   88[BANK0 ] unsigned int 
  bw              2   90[BANK0 ] PTR unsigned int 
		 -> Save_Data@actualLength(2), 
 Auto vars:     Size  Location     Type
  clst            4  119[BANK0 ] unsigned long 
  sect            4  115[BANK0 ] unsigned long 
  fs              2  125[BANK0 ] PTR struct .
		 -> drive(563), NULL(0), 
  wcnt            2  123[BANK0 ] unsigned int 
  cc              2  113[BANK0 ] unsigned int 
  csect           2  111[BANK0 ] unsigned int 
  wbuff           2  109[BANK0 ] PTR const unsigned char 
		 -> savedMessage(12), Save_Data@newLine(3), 
  res             1  108[BANK0 ] enum E68
 Return value:  Size  Location     Type
                  1    wreg      enum E68
 Registers used:
		wreg, fsr0l, fsr0h, fsr1l, fsr1h, fsr2l, fsr2h, status,2, status,0, pclath, tosl, tblptrl, tblptrh, tblptru, prodl, prodh, cstack
 Tracked objects:
		On entry : 
		On exit  : 
		Unchanged: 
 Data sizes:     COMRAM   BANK0   BANK1   BANK2   BANK3   BANK4   BANK5   BANK6   BANK7   BANK8   BANK9  BANK10  BANK11  BANK12  BANK13  BANK14  BANK15  BANK16  BANK17  BANK18  BANK19  BANK20  BANK21  BANK22  BANK23  BANK24  BANK25  BANK26  BANK27  BANK28  BANK29  BANK30  BANK31
      Params:         0       8       0       0       0       0       0       0       0       0       0       0       0       0       0       0       0       0       0       0       0       0       0       0       0       0       0       0       0       0       0       0       0
      Locals:         0      23       0       0       0       0       0       0       0       0       0       0       0       0       0       0       0       0       0       0       0       0       0       0       0       0       0       0       0       0       0       0       0
      Temps:          0      12       0       0       0       0       0       0       0       0       0       0       0       0       0       0       0       0       0       0       0       0       0       0       0       0       0       0       0       0       0       0       0
      Totals:         0      43       0       0       0       0       0       0       0       0       0       0       0       0       0       0       0       0       0       0       0       0       0       0       0       0       0       0       0       0       0       0       0
Total ram usage:       43 bytes
 Hardware stack levels used:    1
 Hardware stack levels required when called:    9
 This function calls:
		_clst2sect
		_create_chain
		_disk_read
		_disk_write
		_mem_cpy
		_validate
 This function is called by:
		_Save_Data
 This function uses a non-reentrant model


 *************** function _f_sync *****************
 Defined at:
		line 3931 in file "mcc_generated_files/fatfs/ff.c"
 Parameters:    Size  Location     Type
  fp              2   24[BANK0 ] PTR struct .
		 -> file(546), 
 Auto vars:     Size  Location     Type
  tm              4    0        unsigned long 
  fs              2   33[BANK0 ] PTR struct .
		 -> drive(563), NULL(0), 
  dir             2   31[BANK0 ] PTR unsigned char 
		 -> drive(563), NULL(0), 
  res             1   30[BANK0 ] enum E68
 Return value:  Size  Location     Type
                  1    wreg      enum E68
 Registers used:
		wreg, fsr0l, fsr0h, fsr1l, fsr1h, fsr2l, fsr2h, status,2, status,0, pclath, tosl, tblptrl, tblptrh, tblptru, prodl, prodh, cstack
 Tracked objects:
		On entry : 
		On exit  : 
		Unchanged: 
 Data sizes:     COMRAM   BANK0   BANK1   BANK2   BANK3   BANK4   BANK5   BANK6   BANK7   BANK8   BANK9  BANK10  BANK11  BANK12  BANK13  BANK14  BANK15  BANK16  BANK17  BANK18  BANK19  BANK20  BANK21  BANK22  BANK23  BANK24  BANK25  BANK26  BANK27  BANK28  BANK29  BANK30  BANK31
      Params:         0       2       0       0       0       0       0       0       0       0       0       0       0       0       0       0       0       0       0       0       0       0       0       0       0       0       0       0       0       0       0       0       0
      Locals:         0       9       0       0       0       0       0       0       0       0       0       0       0       0       0       0       0       0       0       0       0       0       0       0       0       0       0       0       0       0       0       0       0
      Temps:          0       0       0       0       0       0       0       0       0       0       0       0       0       0       0       0       0       0       0       0       0       0       0       0       0       0       0       0       0       0       0       0       0
      Totals:         0      11       0       0       0       0       0       0       0       0       0       0       0       0       0       0       0       0       0       0       0       0       0       0       0       0       0       0       0       0       0       0       0
Total ram usage:       11 bytes
 Hardware stack levels used:    1
 Hardware stack levels required when called:    7
 This function calls:
		_disk_write
		_move_window
		_st_clust
		_st_dword
		_st_word
		_sync_fs
		_validate
 This function is called by:
		_f_close
		_Save_Data
 This function uses a non-reentrant model


 *************** function _validate *****************
 Defined at:
		line 3428 in file "mcc_generated_files/fatfs/ff.c"
 Parameters:    Size  Location     Type
  obj             2    4[COMRAM] PTR struct .
		 -> file(546), 
  rfs             2    6[COMRAM] PTR PTR struct .
		 -> f_close@fs(2), f_sync@fs(2), f_write@fs(2), f_read@fs(2), 
 Auto vars:     Size  Location     Type
  res             1   14[COMRAM] enum E68
 Return value:  Size  Location     Type
                  1    wreg      enum E68
 Registers used:
		wreg, fsr1l, fsr1h, fsr2l, fsr2h, status,2, status,0, cstack
 Tracked objects:
		On entry : 
		On exit  : 
		Unchanged: 
 Data sizes:     COMRAM   BANK0   BANK1   BANK2   BANK3   BANK4   BANK5   BANK6   BANK7   BANK8   BANK9  BANK10  BANK11  BANK12  BANK13  BANK14  BANK15  BANK16  BANK17  BANK18  BANK19  BANK20  BANK21  BANK22  BANK23  BANK24  BANK25  BANK26  BANK27  BANK28  BANK29  BANK30  BANK31
      Params:         4       0       0       0       0       0       0       0       0       0       0       0       0       0       0       0       0       0       0       0       0       0       0       0       0       0       0       0       0       0       0       0       0
      Locals:         3       0       0       0       0       0       0       0       0       0       0       0       0       0       0       0       0       0       0       0       0       0       0       0       0       0       0       0       0       0       0       0       0
      Temps:          4       0       0       0       0       0       0       0       0       0       0       0       0       0       0       0       0       0       0       0       0       0       0       0       0       0       0       0       0       0       0       0       0
      Totals:        11       0       0       0       0       0       0       0       0       0       0       0       0       0       0       0       0       0       0       0       0       0       0       0       0       0       0       0       0       0       0       0       0
Total ram usage:       11 bytes
 Hardware stack levels used:    1
 Hardware stack levels required when called:    2
 This function calls:
		_disk_status
 This function is called by:
		_f_write
		_f_sync
		_f_close
		_f_read
 This function uses a non-reentrant model


 *************** function _sync_fs *****************
 Defined at:
		line 1087 in file "mcc_generated_files/fatfs/ff.c"
 Parameters:    Size  Location     Type
  fs              2   90[COMRAM] PTR struct .
		 -> drive(563), NULL(0), 
 Auto vars:     Size  Location     Type
  res             1   92[COMRAM] enum E68
 Return value:  Size  Location     Type
                  1    wreg      enum E68
 Registers used:
		wreg, fsr0l, fsr0h, fsr1l, fsr1h, fsr2l, fsr2h, status,2, status,0, pclath, tosl, tblptrl, tblptrh, tblptru, prodl, prodh, cstack
 Tracked objects:
		On entry : 
		On exit  : 
		Unchanged: 
 Data sizes:     COMRAM   BANK0   BANK1   BANK2   BANK3   BANK4   BANK5   BANK6   BANK7   BANK8   BANK9  BANK10  BANK11  BANK12  BANK13  BANK14  BANK15  BANK16  BANK17  BANK18  BANK19  BANK20  BANK21  BANK22  BANK23  BANK24  BANK25  BANK26  BANK27  BANK28  BANK29  BANK30  BANK31
      Params:         2       0       0       0       0       0       0       0       0       0       0       0       0       0       0       0       0       0       0       0       0       0       0       0       0       0       0       0       0       0       0       0       0
      Locals:         1       0       0       0       0       0       0       0       0       0       0       0       0       0       0       0       0       0       0       0       0       0       0       0       0       0       0       0       0       0       0       0       0
      Temps:          0       8       0       0       0       0       0       0       0       0       0       0       0       0       0       0       0       0       0       0       0       0       0       0       0       0       0       0       0       0       0       0       0
      Totals:         3       8       0       0       0       0       0       0       0       0       0       0       0       0       0       0       0       0       0       0       0       0       0       0       0       0       0       0       0       0       0       0       0
Total ram usage:       11 bytes
 Hardware stack levels used:    1
 Hardware stack levels required when called:    6
 This function calls:
		_disk_ioctl
		_disk_write
		_mem_set
		_st_dword
		_st_word
		_sync_window
 This function is called by:
		_f_sync
 This function uses a non-reentrant model


 *************** function _disk_ioctl *****************
 Defined at:
		line 158 in file "mcc_generated_files/fatfs/diskio.c"
 Parameters:    Size  Location     Type
  pdrv            1    wreg     unsigned char 
  cmd             1    0[COMRAM] unsigned char 
  buff            2    1[COMRAM] PTR void 
		 -> NULL(0), 
 Auto vars:     Size  Location     Type
  pdrv            1    5[COMRAM] unsigned char 
  res             1    0        enum E12
 Return value:  Size  Location     Type
                  1    wreg      enum E208
 Registers used:
		wreg, status,2, status,0
 Tracked objects:
		On entry : 
		On exit  : 
		Unchanged: 
 Data sizes:     COMRAM   BANK0   BANK1   BANK2   BANK3   BANK4   BANK5   BANK6   BANK7   BANK8   BANK9  BANK10  BANK11  BANK12  BANK13  BANK14  BANK15  BANK16  BANK17  BANK18  BANK19  BANK20  BANK21  BANK22  BANK23  BANK24  BANK25  BANK26  BANK27  BANK28  BANK29  BANK30  BANK31
      Params:         3       0       0       0       0       0       0       0       0       0       0       0       0       0       0       0       0       0       0       0       0       0       0       0       0       0       0       0       0       0       0       0       0
      Locals:         2       0       0       0       0       0       0       0       0       0       0       0       0       0       0       0       0       0       0       0       0       0       0       0       0       0       0       0       0       0       0       0       0
      Temps:          2       0       0       0       0       0       0       0       0       0       0       0       0       0       0       0       0       0       0       0       0       0       0       0       0       0       0       0       0       0       0       0       0
      Totals:         7       0       0       0       0       0       0       0       0       0       0       0       0       0       0       0       0       0       0       0       0       0       0       0       0       0       0       0       0       0       0       0       0
Total ram usage:        7 bytes
 Hardware stack levels used:    1
 This function calls:
		Nothing
 This function is called by:
		_sync_fs
 This function uses a non-reentrant model


 *************** function _f_open *****************
 Defined at:
		line 3520 in file "mcc_generated_files/fatfs/ff.c"
 Parameters:    Size  Location     Type
  fp              2  136[BANK0 ] PTR struct .
		 -> file(546), 
  path            2  138[BANK0 ] PTR const unsigned char 
		 -> STR_76(3), STR_8(8), STR_7(3), 
  mode            1  140[BANK0 ] unsigned char 
 Auto vars:     Size  Location     Type
  dj             40   29[BANK1 ] struct .
  clst            4   22[BANK1 ] unsigned long 
  ofs             4   18[BANK1 ] unsigned long 
  cl              4   14[BANK1 ] unsigned long 
  bcs             4   10[BANK1 ] unsigned long 
  sc              4    4[BANK1 ] unsigned long 
  dw              4    0[BANK1 ] unsigned long 
  fs              2   26[BANK1 ] PTR struct .
		 -> drive(563), NULL(0), 
  res             1   28[BANK1 ] enum E68
 Return value:  Size  Location     Type
                  1    wreg      enum E68
 Registers used:
		wreg, fsr0l, fsr0h, fsr1l, fsr1h, fsr2l, fsr2h, status,2, status,0, pclath, tosl, tblptrl, tblptrh, tblptru, prodl, prodh, cstack
 Tracked objects:
		On entry : 
		On exit  : 
		Unchanged: 
 Data sizes:     COMRAM   BANK0   BANK1   BANK2   BANK3   BANK4   BANK5   BANK6   BANK7   BANK8   BANK9  BANK10  BANK11  BANK12  BANK13  BANK14  BANK15  BANK16  BANK17  BANK18  BANK19  BANK20  BANK21  BANK22  BANK23  BANK24  BANK25  BANK26  BANK27  BANK28  BANK29  BANK30  BANK31
      Params:         0       5       0       0       0       0       0       0       0       0       0       0       0       0       0       0       0       0       0       0       0       0       0       0       0       0       0       0       0       0       0       0       0
      Locals:         0       0      69       0       0       0       0       0       0       0       0       0       0       0       0       0       0       0       0       0       0       0       0       0       0       0       0       0       0       0       0       0       0
      Temps:          0       8       0       0       0       0       0       0       0       0       0       0       0       0       0       0       0       0       0       0       0       0       0       0       0       0       0       0       0       0       0       0       0
      Totals:         0      13      69       0       0       0       0       0       0       0       0       0       0       0       0       0       0       0       0       0       0       0       0       0       0       0       0       0       0       0       0       0       0
Total ram usage:       82 bytes
 Hardware stack levels used:    1
 Hardware stack levels required when called:   12
 This function calls:
		_clst2sect
		_dir_register
		_disk_read
		_find_volume
		_follow_path
		_get_fat
		_ld_clust
		_ld_dword
		_mem_set
		_move_window
		_remove_chain
		_st_clust
		_st_dword
 This function is called by:
		_Save_Data
 This function uses a non-reentrant model


 *************** function _st_clust *****************
 Defined at:
		line 1842 in file "mcc_generated_files/fatfs/ff.c"
 Parameters:    Size  Location     Type
  fs              2    4[COMRAM] PTR struct .
		 -> drive(563), NULL(0), 
  dir             2    6[COMRAM] PTR unsigned char 
		 -> drive(563), NULL(0), 
  cl              4    8[COMRAM] unsigned long 
 Auto vars:     Size  Location     Type
		None
 Return value:  Size  Location     Type
                  1    wreg      void 
 Registers used:
		wreg, fsr2l, fsr2h, status,2, status,0, cstack
 Tracked objects:
		On entry : 
		On exit  : 
		Unchanged: 
 Data sizes:     COMRAM   BANK0   BANK1   BANK2   BANK3   BANK4   BANK5   BANK6   BANK7   BANK8   BANK9  BANK10  BANK11  BANK12  BANK13  BANK14  BANK15  BANK16  BANK17  BANK18  BANK19  BANK20  BANK21  BANK22  BANK23  BANK24  BANK25  BANK26  BANK27  BANK28  BANK29  BANK30  BANK31
      Params:         8       0       0       0       0       0       0       0       0       0       0       0       0       0       0       0       0       0       0       0       0       0       0       0       0       0       0       0       0       0       0       0       0
      Locals:         0       0       0       0       0       0       0       0       0       0       0       0       0       0       0       0       0       0       0       0       0       0       0       0       0       0       0       0       0       0       0       0       0
      Temps:          1       0       0       0       0       0       0       0       0       0       0       0       0       0       0       0       0       0       0       0       0       0       0       0       0       0       0       0       0       0       0       0       0
      Totals:         9       0       0       0       0       0       0       0       0       0       0       0       0       0       0       0       0       0       0       0       0       0       0       0       0       0       0       0       0       0       0       0       0
Total ram usage:        9 bytes
 Hardware stack levels used:    1
 Hardware stack levels required when called:    1
 This function calls:
		_st_word
 This function is called by:
		_f_open
		_f_sync
 This function uses a non-reentrant model


 *************** function _remove_chain *****************
 Defined at:
		line 1408 in file "mcc_generated_files/fatfs/ff.c"
 Parameters:    Size  Location     Type
  obj             2   55[BANK0 ] PTR struct .
		 -> f_open@dj(40), 
  clst            4   57[BANK0 ] unsigned long 
  pclst           4   61[BANK0 ] unsigned long 
 Auto vars:     Size  Location     Type
  nxt             4   73[BANK0 ] unsigned long 
  fs              2   78[BANK0 ] PTR struct .
		 -> drive(563), NULL(0), 
  res             1   77[BANK0 ] enum E68
 Return value:  Size  Location     Type
                  1    wreg      enum E68
 Registers used:
		wreg, fsr0l, fsr0h, fsr1l, fsr1h, fsr2l, fsr2h, status,2, status,0, pclath, tosl, tblptrl, tblptrh, tblptru, prodl, prodh, cstack
 Tracked objects:
		On entry : 
		On exit  : 
		Unchanged: 
 Data sizes:     COMRAM   BANK0   BANK1   BANK2   BANK3   BANK4   BANK5   BANK6   BANK7   BANK8   BANK9  BANK10  BANK11  BANK12  BANK13  BANK14  BANK15  BANK16  BANK17  BANK18  BANK19  BANK20  BANK21  BANK22  BANK23  BANK24  BANK25  BANK26  BANK27  BANK28  BANK29  BANK30  BANK31
      Params:         0      10       0       0       0       0       0       0       0       0       0       0       0       0       0       0       0       0       0       0       0       0       0       0       0       0       0       0       0       0       0       0       0
      Locals:         0       7       0       0       0       0       0       0       0       0       0       0       0       0       0       0       0       0       0       0       0       0       0       0       0       0       0       0       0       0       0       0       0
      Temps:          0       8       0       0       0       0       0       0       0       0       0       0       0       0       0       0       0       0       0       0       0       0       0       0       0       0       0       0       0       0       0       0       0
      Totals:         0      25       0       0       0       0       0       0       0       0       0       0       0       0       0       0       0       0       0       0       0       0       0       0       0       0       0       0       0       0       0       0       0
Total ram usage:       25 bytes
 Hardware stack levels used:    1
 Hardware stack levels required when called:    8
 This function calls:
		_get_fat
		_put_fat
 This function is called by:
		_f_open
 This function uses a non-reentrant model


 *************** function _follow_path *****************
 Defined at:
		line 3015 in file "mcc_generated_files/fatfs/ff.c"
 Parameters:    Size  Location     Type
  dp              2  122[BANK0 ] PTR struct .
		 -> f_chdir@dj(40), f_open@dj(40), 
  path            2  124[BANK0 ] PTR const unsigned char 
		 -> STR_76(3), STR_8(8), STR_7(3), 
 Auto vars:     Size  Location     Type
  fs              2  132[BANK0 ] PTR struct .
		 -> drive(563), NULL(0), 
  res             1  135[BANK0 ] enum E68
  ns              1  134[BANK0 ] unsigned char 
 Return value:  Size  Location     Type
                  1    wreg      enum E68
 Registers used:
		wreg, fsr0l, fsr0h, fsr1l, fsr1h, fsr2l, fsr2h, status,2, status,0, pclath, tosl, tblptrl, tblptrh, tblptru, prodl, prodh, cstack
 Tracked objects:
		On entry : 
		On exit  : 
		Unchanged: 
 Data sizes:     COMRAM   BANK0   BANK1   BANK2   BANK3   BANK4   BANK5   BANK6   BANK7   BANK8   BANK9  BANK10  BANK11  BANK12  BANK13  BANK14  BANK15  BANK16  BANK17  BANK18  BANK19  BANK20  BANK21  BANK22  BANK23  BANK24  BANK25  BANK26  BANK27  BANK28  BANK29  BANK30  BANK31
      Params:         0       4       0       0       0       0       0       0       0       0       0       0       0       0       0       0       0       0       0       0       0       0       0       0       0       0       0       0       0       0       0       0       0
      Locals:         0       4       0       0       0       0       0       0       0       0       0       0       0       0       0       0       0       0       0       0       0       0       0       0       0       0       0       0       0       0       0       0       0
      Temps:          0       6       0       0       0       0       0       0       0       0       0       0       0       0       0       0       0       0       0       0       0       0       0       0       0       0       0       0       0       0       0       0       0
      Totals:         0      14       0       0       0       0       0       0       0       0       0       0       0       0       0       0       0       0       0       0       0       0       0       0       0       0       0       0       0       0       0       0       0
Total ram usage:       14 bytes
 Hardware stack levels used:    1
 Hardware stack levels required when called:   11
 This function calls:
		_create_name
		_dir_find
		_dir_sdi
		_ld_clust
 This function is called by:
		_f_open
		_f_chdir
 This function uses a non-reentrant model


 *************** function _ld_clust *****************
 Defined at:
		line 1825 in file "mcc_generated_files/fatfs/ff.c"
 Parameters:    Size  Location     Type
  fs              2    7[COMRAM] PTR struct .
		 -> drive(563), NULL(0), 
  dir             2    9[COMRAM] PTR const unsigned char 
		 -> drive.win(512), drive(563), NULL(0), 
 Auto vars:     Size  Location     Type
  cl              4   15[COMRAM] unsigned long 
 Return value:  Size  Location     Type
                  4    7[COMRAM] unsigned long 
 Registers used:
		wreg, fsr2l, fsr2h, status,2, status,0, cstack
 Tracked objects:
		On entry : 
		On exit  : 
		Unchanged: 
 Data sizes:     COMRAM   BANK0   BANK1   BANK2   BANK3   BANK4   BANK5   BANK6   BANK7   BANK8   BANK9  BANK10  BANK11  BANK12  BANK13  BANK14  BANK15  BANK16  BANK17  BANK18  BANK19  BANK20  BANK21  BANK22  BANK23  BANK24  BANK25  BANK26  BANK27  BANK28  BANK29  BANK30  BANK31
      Params:         4       0       0       0       0       0       0       0       0       0       0       0       0       0       0       0       0       0       0       0       0       0       0       0       0       0       0       0       0       0       0       0       0
      Locals:         4       0       0       0       0       0       0       0       0       0       0       0       0       0       0       0       0       0       0       0       0       0       0       0       0       0       0       0       0       0       0       0       0
      Temps:          4       0       0       0       0       0       0       0       0       0       0       0       0       0       0       0       0       0       0       0       0       0       0       0       0       0       0       0       0       0       0       0       0
      Totals:        12       0       0       0       0       0       0       0       0       0       0       0       0       0       0       0       0       0       0       0       0       0       0       0       0       0       0       0       0       0       0       0       0
Total ram usage:       12 bytes
 Hardware stack levels used:    1
 Hardware stack levels required when called:    1
 This function calls:
		_ld_word
 This function is called by:
		_follow_path
		_f_open
		_f_chdir
 This function uses a non-reentrant model


 *************** function _dir_find *****************
 Defined at:
		line 2403 in file "mcc_generated_files/fatfs/ff.c"
 Parameters:    Size  Location     Type
  dp              2  114[BANK0 ] PTR struct .
		 -> f_chdir@dj(40), f_open@dj(40), 
 Auto vars:     Size  Location     Type
  fs              2  118[BANK0 ] PTR struct .
		 -> drive(563), NULL(0), 
  res             1  121[BANK0 ] enum E68
  c               1  120[BANK0 ] unsigned char 
 Return value:  Size  Location     Type
                  1    wreg      enum E68
 Registers used:
		wreg, fsr0l, fsr0h, fsr1l, fsr1h, fsr2l, fsr2h, status,2, status,0, pclath, tosl, tblptrl, tblptrh, tblptru, prodl, prodh, cstack
 Tracked objects:
		On entry : 
		On exit  : 
		Unchanged: 
 Data sizes:     COMRAM   BANK0   BANK1   BANK2   BANK3   BANK4   BANK5   BANK6   BANK7   BANK8   BANK9  BANK10  BANK11  BANK12  BANK13  BANK14  BANK15  BANK16  BANK17  BANK18  BANK19  BANK20  BANK21  BANK22  BANK23  BANK24  BANK25  BANK26  BANK27  BANK28  BANK29  BANK30  BANK31
      Params:         0       2       0       0       0       0       0       0       0       0       0       0       0       0       0       0       0       0       0       0       0       0       0       0       0       0       0       0       0       0       0       0       0
      Locals:         0       4       0       0       0       0       0       0       0       0       0       0       0       0       0       0       0       0       0       0       0       0       0       0       0       0       0       0       0       0       0       0       0
      Temps:          0       2       0       0       0       0       0       0       0       0       0       0       0       0       0       0       0       0       0       0       0       0       0       0       0       0       0       0       0       0       0       0       0
      Totals:         0       8       0       0       0       0       0       0       0       0       0       0       0       0       0       0       0       0       0       0       0       0       0       0       0       0       0       0       0       0       0       0       0
Total ram usage:        8 bytes
 Hardware stack levels used:    1
 Hardware stack levels required when called:   10
 This function calls:
		_dir_next
		_dir_sdi
		_mem_cmp
		_move_window
 This function is called by:
		_follow_path
 This function uses a non-reentrant model


 *************** function _create_name *****************
 Defined at:
		line 2818 in file "mcc_generated_files/fatfs/ff.c"
 Parameters:    Size  Location     Type
  dp              2    8[COMRAM] PTR struct .
		 -> f_chdir@dj(40), f_open@dj(40), 
  path            2   10[COMRAM] PTR PTR const unsigned c
		 -> follow_path@path(2), 
 Auto vars:     Size  Location     Type
  si              2   29[COMRAM] unsigned int 
  sfn             2   27[COMRAM] PTR unsigned char 
		 -> dj.fn(12), f_chdir@dj(40), dj.fn(12), f_open@dj(40), 
  i               2   25[COMRAM] unsigned int 
  p               2   23[COMRAM] PTR const unsigned char 
		 -> STR_76(3), STR_8(8), STR_7(3), 
  ni              2   21[COMRAM] unsigned int 
  c               1   31[COMRAM] unsigned char 
  d               1   20[COMRAM] unsigned char 
 Return value:  Size  Location     Type
                  1    wreg      enum E68
 Registers used:
		wreg, fsr2l, fsr2h, status,2, status,0, tblptrl, tblptrh, tblptru, cstack
 Tracked objects:
		On entry : 
		On exit  : 
		Unchanged: 
 Data sizes:     COMRAM   BANK0   BANK1   BANK2   BANK3   BANK4   BANK5   BANK6   BANK7   BANK8   BANK9  BANK10  BANK11  BANK12  BANK13  BANK14  BANK15  BANK16  BANK17  BANK18  BANK19  BANK20  BANK21  BANK22  BANK23  BANK24  BANK25  BANK26  BANK27  BANK28  BANK29  BANK30  BANK31
      Params:         4       0       0       0       0       0       0       0       0       0       0       0       0       0       0       0       0       0       0       0       0       0       0       0       0       0       0       0       0       0       0       0       0
      Locals:        16       0       0       0       0       0       0       0       0       0       0       0       0       0       0       0       0       0       0       0       0       0       0       0       0       0       0       0       0       0       0       0       0
      Temps:          4       0       0       0       0       0       0       0       0       0       0       0       0       0       0       0       0       0       0       0       0       0       0       0       0       0       0       0       0       0       0       0       0
      Totals:        24       0       0       0       0       0       0       0       0       0       0       0       0       0       0       0       0       0       0       0       0       0       0       0       0       0       0       0       0       0       0       0       0
Total ram usage:       24 bytes
 Hardware stack levels used:    1
 Hardware stack levels required when called:    1
 This function calls:
		_chk_chr
		_dbc_1st
		_dbc_2nd
		_mem_set
 This function is called by:
		_follow_path
 This function uses a non-reentrant model


 *************** function _dbc_2nd *****************
 Defined at:
		line 713 in file "mcc_generated_files/fatfs/ff.c"
 Parameters:    Size  Location     Type
  c               1    wreg     unsigned char 
 Auto vars:     Size  Location     Type
  c               1    2[COMRAM] unsigned char 
 Return value:  Size  Location     Type
                  2    0[COMRAM] int 
 Registers used:
		wreg, status,2
 Tracked objects:
		On entry : 
		On exit  : 
		Unchanged: 
 Data sizes:     COMRAM   BANK0   BANK1   BANK2   BANK3   BANK4   BANK5   BANK6   BANK7   BANK8   BANK9  BANK10  BANK11  BANK12  BANK13  BANK14  BANK15  BANK16  BANK17  BANK18  BANK19  BANK20  BANK21  BANK22  BANK23  BANK24  BANK25  BANK26  BANK27  BANK28  BANK29  BANK30  BANK31
      Params:         2       0       0       0       0       0       0       0       0       0       0       0       0       0       0       0       0       0       0       0       0       0       0       0       0       0       0       0       0       0       0       0       0
      Locals:         1       0       0       0       0       0       0       0       0       0       0       0       0       0       0       0       0       0       0       0       0       0       0       0       0       0       0       0       0       0       0       0       0
      Temps:          0       0       0       0       0       0       0       0       0       0       0       0       0       0       0       0       0       0       0       0       0       0       0       0       0       0       0       0       0       0       0       0       0
      Totals:         3       0       0       0       0       0       0       0       0       0       0       0       0       0       0       0       0       0       0       0       0       0       0       0       0       0       0       0       0       0       0       0       0
Total ram usage:        3 bytes
 Hardware stack levels used:    1
 This function calls:
		Nothing
 This function is called by:
		_create_name
 This function uses a non-reentrant model


 *************** function _dbc_1st *****************
 Defined at:
		line 693 in file "mcc_generated_files/fatfs/ff.c"
 Parameters:    Size  Location     Type
  c               1    wreg     unsigned char 
 Auto vars:     Size  Location     Type
  c               1    2[COMRAM] unsigned char 
 Return value:  Size  Location     Type
                  2    0[COMRAM] int 
 Registers used:
		wreg, status,2
 Tracked objects:
		On entry : 
		On exit  : 
		Unchanged: 
 Data sizes:     COMRAM   BANK0   BANK1   BANK2   BANK3   BANK4   BANK5   BANK6   BANK7   BANK8   BANK9  BANK10  BANK11  BANK12  BANK13  BANK14  BANK15  BANK16  BANK17  BANK18  BANK19  BANK20  BANK21  BANK22  BANK23  BANK24  BANK25  BANK26  BANK27  BANK28  BANK29  BANK30  BANK31
      Params:         2       0       0       0       0       0       0       0       0       0       0       0       0       0       0       0       0       0       0       0       0       0       0       0       0       0       0       0       0       0       0       0       0
      Locals:         1       0       0       0       0       0       0       0       0       0       0       0       0       0       0       0       0       0       0       0       0       0       0       0       0       0       0       0       0       0       0       0       0
      Temps:          0       0       0       0       0       0       0       0       0       0       0       0       0       0       0       0       0       0       0       0       0       0       0       0       0       0       0       0       0       0       0       0       0
      Totals:         3       0       0       0       0       0       0       0       0       0       0       0       0       0       0       0       0       0       0       0       0       0       0       0       0       0       0       0       0       0       0       0       0
Total ram usage:        3 bytes
 Hardware stack levels used:    1
 This function calls:
		Nothing
 This function is called by:
		_create_name
 This function uses a non-reentrant model


 *************** function _chk_chr *****************
 Defined at:
		line 685 in file "mcc_generated_files/fatfs/ff.c"
 Parameters:    Size  Location     Type
  str             2    0[COMRAM] PTR const unsigned char 
		 -> STR_2(15), 
  chr             2    2[COMRAM] int 
 Auto vars:     Size  Location     Type
		None
 Return value:  Size  Location     Type
                  2    0[COMRAM] int 
 Registers used:
		wreg, status,2, status,0, tblptrl, tblptrh, tblptru
 Tracked objects:
		On entry : 
		On exit  : 
		Unchanged: 
 Data sizes:     COMRAM   BANK0   BANK1   BANK2   BANK3   BANK4   BANK5   BANK6   BANK7   BANK8   BANK9  BANK10  BANK11  BANK12  BANK13  BANK14  BANK15  BANK16  BANK17  BANK18  BANK19  BANK20  BANK21  BANK22  BANK23  BANK24  BANK25  BANK26  BANK27  BANK28  BANK29  BANK30  BANK31
      Params:         4       0       0       0       0       0       0       0       0       0       0       0       0       0       0       0       0       0       0       0       0       0       0       0       0       0       0       0       0       0       0       0       0
      Locals:         0       0       0       0       0       0       0       0       0       0       0       0       0       0       0       0       0       0       0       0       0       0       0       0       0       0       0       0       0       0       0       0       0
      Temps:          2       0       0       0       0       0       0       0       0       0       0       0       0       0       0       0       0       0       0       0       0       0       0       0       0       0       0       0       0       0       0       0       0
      Totals:         6       0       0       0       0       0       0       0       0       0       0       0       0       0       0       0       0       0       0       0       0       0       0       0       0       0       0       0       0       0       0       0       0
Total ram usage:        6 bytes
 Hardware stack levels used:    1
 This function calls:
		Nothing
 This function is called by:
		_create_name
 This function uses a non-reentrant model


 *************** function _dir_register *****************
 Defined at:
		line 2484 in file "mcc_generated_files/fatfs/ff.c"
 Parameters:    Size  Location     Type
  dp              2  126[BANK0 ] PTR struct .
		 -> f_open@dj(40), 
 Auto vars:     Size  Location     Type
  fs              2  128[BANK0 ] PTR struct .
		 -> drive(563), NULL(0), 
  res             1  130[BANK0 ] enum E68
 Return value:  Size  Location     Type
                  1    wreg      enum E68
 Registers used:
		wreg, fsr0l, fsr0h, fsr1l, fsr1h, fsr2l, fsr2h, status,2, status,0, pclath, tosl, tblptrl, tblptrh, tblptru, prodl, prodh, cstack
 Tracked objects:
		On entry : 
		On exit  : 
		Unchanged: 
 Data sizes:     COMRAM   BANK0   BANK1   BANK2   BANK3   BANK4   BANK5   BANK6   BANK7   BANK8   BANK9  BANK10  BANK11  BANK12  BANK13  BANK14  BANK15  BANK16  BANK17  BANK18  BANK19  BANK20  BANK21  BANK22  BANK23  BANK24  BANK25  BANK26  BANK27  BANK28  BANK29  BANK30  BANK31
      Params:         0       2       0       0       0       0       0       0       0       0       0       0       0       0       0       0       0       0       0       0       0       0       0       0       0       0       0       0       0       0       0       0       0
      Locals:         0       3       0       0       0       0       0       0       0       0       0       0       0       0       0       0       0       0       0       0       0       0       0       0       0       0       0       0       0       0       0       0       0
      Temps:          0       0       0       0       0       0       0       0       0       0       0       0       0       0       0       0       0       0       0       0       0       0       0       0       0       0       0       0       0       0       0       0       0
      Totals:         0       5       0       0       0       0       0       0       0       0       0       0       0       0       0       0       0       0       0       0       0       0       0       0       0       0       0       0       0       0       0       0       0
Total ram usage:        5 bytes
 Hardware stack levels used:    1
 Hardware stack levels required when called:   11
 This function calls:
		_dir_alloc
		_mem_cpy
		_mem_set
		_move_window
 This function is called by:
		_f_open
 This function uses a non-reentrant model


 *************** function _mem_cpy *****************
 Defined at:
		line 646 in file "mcc_generated_files/fatfs/ff.c"
 Parameters:    Size  Location     Type
  dst             2    0[COMRAM] PTR void 
		 -> file.buf(512), file(546), drive(563), NULL(0), 
  src             2    2[COMRAM] PTR const void 
		 -> savedMessage(12), Save_Data@newLine(3), dj.fn(12), f_open@dj(40), 
  cnt             2    4[COMRAM] unsigned int 
 Auto vars:     Size  Location     Type
  s               2    8[COMRAM] PTR const unsigned char 
		 -> savedMessage(12), Save_Data@newLine(3), dj.fn(12), f_open@dj(40), 
  d               2    6[COMRAM] PTR unsigned char 
		 -> file.buf(512), file(546), drive(563), NULL(0), 
 Return value:  Size  Location     Type
                  1    wreg      void 
 Registers used:
		wreg, fsr1l, fsr1h, fsr2l, fsr2h, status,2, status,0
 Tracked objects:
		On entry : 
		On exit  : 
		Unchanged: 
 Data sizes:     COMRAM   BANK0   BANK1   BANK2   BANK3   BANK4   BANK5   BANK6   BANK7   BANK8   BANK9  BANK10  BANK11  BANK12  BANK13  BANK14  BANK15  BANK16  BANK17  BANK18  BANK19  BANK20  BANK21  BANK22  BANK23  BANK24  BANK25  BANK26  BANK27  BANK28  BANK29  BANK30  BANK31
      Params:         6       0       0       0       0       0       0       0       0       0       0       0       0       0       0       0       0       0       0       0       0       0       0       0       0       0       0       0       0       0       0       0       0
      Locals:         4       0       0       0       0       0       0       0       0       0       0       0       0       0       0       0       0       0       0       0       0       0       0       0       0       0       0       0       0       0       0       0       0
      Temps:          0       0       0       0       0       0       0       0       0       0       0       0       0       0       0       0       0       0       0       0       0       0       0       0       0       0       0       0       0       0       0       0       0
      Totals:        10       0       0       0       0       0       0       0       0       0       0       0       0       0       0       0       0       0       0       0       0       0       0       0       0       0       0       0       0       0       0       0       0
Total ram usage:       10 bytes
 Hardware stack levels used:    1
 This function calls:
		Nothing
 This function is called by:
		_dir_register
		_f_write
		_f_read
 This function uses a non-reentrant model


 *************** function _dir_alloc *****************
 Defined at:
		line 1783 in file "mcc_generated_files/fatfs/ff.c"
 Parameters:    Size  Location     Type
  dp              2  114[BANK0 ] PTR struct .
		 -> f_open@dj(40), 
  nent            2  116[BANK0 ] unsigned int 
 Auto vars:     Size  Location     Type
  n               2  123[BANK0 ] unsigned int 
  fs              2  121[BANK0 ] PTR struct .
		 -> drive(563), NULL(0), 
  res             1  125[BANK0 ] enum E68
 Return value:  Size  Location     Type
                  1    wreg      enum E68
 Registers used:
		wreg, fsr0l, fsr0h, fsr1l, fsr1h, fsr2l, fsr2h, status,2, status,0, pclath, tosl, tblptrl, tblptrh, tblptru, prodl, prodh, cstack
 Tracked objects:
		On entry : 
		On exit  : 
		Unchanged: 
 Data sizes:     COMRAM   BANK0   BANK1   BANK2   BANK3   BANK4   BANK5   BANK6   BANK7   BANK8   BANK9  BANK10  BANK11  BANK12  BANK13  BANK14  BANK15  BANK16  BANK17  BANK18  BANK19  BANK20  BANK21  BANK22  BANK23  BANK24  BANK25  BANK26  BANK27  BANK28  BANK29  BANK30  BANK31
      Params:         0       4       0       0       0       0       0       0       0       0       0       0       0       0       0       0       0       0       0       0       0       0       0       0       0       0       0       0       0       0       0       0       0
      Locals:         0       5       0       0       0       0       0       0       0       0       0       0       0       0       0       0       0       0       0       0       0       0       0       0       0       0       0       0       0       0       0       0       0
      Temps:          0       3       0       0       0       0       0       0       0       0       0       0       0       0       0       0       0       0       0       0       0       0       0       0       0       0       0       0       0       0       0       0       0
      Totals:         0      12       0       0       0       0       0       0       0       0       0       0       0       0       0       0       0       0       0       0       0       0       0       0       0       0       0       0       0       0       0       0       0
Total ram usage:       12 bytes
 Hardware stack levels used:    1
 Hardware stack levels required when called:   10
 This function calls:
		_dir_next
		_dir_sdi
		_move_window
 This function is called by:
		_dir_register
 This function uses a non-reentrant model


 *************** function _dir_sdi *****************
 Defined at:
		line 1675 in file "mcc_generated_files/fatfs/ff.c"
 Parameters:    Size  Location     Type
  dp              2   49[BANK0 ] PTR struct .
		 -> f_chdir@dj(40), f_open@dj(40), 
  ofs             4   51[BANK0 ] unsigned long 
 Auto vars:     Size  Location     Type
  clst            4   73[BANK0 ] unsigned long 
  csz             4   69[BANK0 ] unsigned long 
  fs              2   77[BANK0 ] PTR struct .
		 -> drive(563), NULL(0), 
 Return value:  Size  Location     Type
                  1    wreg      enum E68
 Registers used:
		wreg, fsr0l, fsr0h, fsr1l, fsr1h, fsr2l, fsr2h, status,2, status,0, pclath, tosl, tblptrl, tblptrh, tblptru, prodl, prodh, cstack
 Tracked objects:
		On entry : 
		On exit  : 
		Unchanged: 
 Data sizes:     COMRAM   BANK0   BANK1   BANK2   BANK3   BANK4   BANK5   BANK6   BANK7   BANK8   BANK9  BANK10  BANK11  BANK12  BANK13  BANK14  BANK15  BANK16  BANK17  BANK18  BANK19  BANK20  BANK21  BANK22  BANK23  BANK24  BANK25  BANK26  BANK27  BANK28  BANK29  BANK30  BANK31
      Params:         0       6       0       0       0       0       0       0       0       0       0       0       0       0       0       0       0       0       0       0       0       0       0       0       0       0       0       0       0       0       0       0       0
      Locals:         0      14       0       0       0       0       0       0       0       0       0       0       0       0       0       0       0       0       0       0       0       0       0       0       0       0       0       0       0       0       0       0       0
      Temps:          0      10       0       0       0       0       0       0       0       0       0       0       0       0       0       0       0       0       0       0       0       0       0       0       0       0       0       0       0       0       0       0       0
      Totals:         0      30       0       0       0       0       0       0       0       0       0       0       0       0       0       0       0       0       0       0       0       0       0       0       0       0       0       0       0       0       0       0       0
Total ram usage:       30 bytes
 Hardware stack levels used:    1
 Hardware stack levels required when called:    8
 This function calls:
		_clst2sect
		_get_fat
 This function is called by:
		_dir_alloc
		_dir_find
		_follow_path
 This function uses a non-reentrant model


 *************** function _dir_next *****************
 Defined at:
		line 1723 in file "mcc_generated_files/fatfs/ff.c"
 Parameters:    Size  Location     Type
  dp              2   84[BANK0 ] PTR struct .
		 -> f_chdir@dj(40), f_open@dj(40), 
  stretch         2   86[BANK0 ] int 
 Auto vars:     Size  Location     Type
  clst            4  110[BANK0 ] unsigned long 
  ofs             4  104[BANK0 ] unsigned long 
  fs              2  108[BANK0 ] PTR struct .
		 -> drive(563), NULL(0), 
 Return value:  Size  Location     Type
                  1    wreg      enum E68
 Registers used:
		wreg, fsr0l, fsr0h, fsr1l, fsr1h, fsr2l, fsr2h, status,2, status,0, pclath, tosl, tblptrl, tblptrh, tblptru, prodl, prodh, cstack
 Tracked objects:
		On entry : 
		On exit  : 
		Unchanged: 
 Data sizes:     COMRAM   BANK0   BANK1   BANK2   BANK3   BANK4   BANK5   BANK6   BANK7   BANK8   BANK9  BANK10  BANK11  BANK12  BANK13  BANK14  BANK15  BANK16  BANK17  BANK18  BANK19  BANK20  BANK21  BANK22  BANK23  BANK24  BANK25  BANK26  BANK27  BANK28  BANK29  BANK30  BANK31
      Params:         0       4       0       0       0       0       0       0       0       0       0       0       0       0       0       0       0       0       0       0       0       0       0       0       0       0       0       0       0       0       0       0       0
      Locals:         0      14       0       0       0       0       0       0       0       0       0       0       0       0       0       0       0       0       0       0       0       0       0       0       0       0       0       0       0       0       0       0       0
      Temps:          0      12       0       0       0       0       0       0       0       0       0       0       0       0       0       0       0       0       0       0       0       0       0       0       0       0       0       0       0       0       0       0       0
      Totals:         0      30       0       0       0       0       0       0       0       0       0       0       0       0       0       0       0       0       0       0       0       0       0       0       0       0       0       0       0       0       0       0       0
Total ram usage:       30 bytes
 Hardware stack levels used:    1
 Hardware stack levels required when called:    9
 This function calls:
		_clst2sect
		_create_chain
		_dir_clear
		_get_fat
 This function is called by:
		_dir_alloc
		_dir_find
 This function uses a non-reentrant model


 *************** function _dir_clear *****************
 Defined at:
		line 1636 in file "mcc_generated_files/fatfs/ff.c"
 Parameters:    Size  Location     Type
  fs              2   16[BANK0 ] PTR struct .
		 -> drive(563), NULL(0), 
  clst            4   18[BANK0 ] unsigned long 
 Auto vars:     Size  Location     Type
  sect            4   24[BANK0 ] unsigned long 
  n               2   30[BANK0 ] unsigned int 
  szb             2   28[BANK0 ] unsigned int 
  ibuf            2   22[BANK0 ] PTR unsigned char 
		 -> drive.win(512), drive(563), NULL(0), 
 Return value:  Size  Location     Type
                  1    wreg      enum E68
 Registers used:
		wreg, fsr0l, fsr0h, fsr1l, fsr1h, fsr2l, fsr2h, status,2, status,0, pclath, tosl, tblptrl, tblptrh, tblptru, prodl, prodh, cstack
 Tracked objects:
		On entry : 
		On exit  : 
		Unchanged: 
 Data sizes:     COMRAM   BANK0   BANK1   BANK2   BANK3   BANK4   BANK5   BANK6   BANK7   BANK8   BANK9  BANK10  BANK11  BANK12  BANK13  BANK14  BANK15  BANK16  BANK17  BANK18  BANK19  BANK20  BANK21  BANK22  BANK23  BANK24  BANK25  BANK26  BANK27  BANK28  BANK29  BANK30  BANK31
      Params:         0       6       0       0       0       0       0       0       0       0       0       0       0       0       0       0       0       0       0       0       0       0       0       0       0       0       0       0       0       0       0       0       0
      Locals:         0      10       0       0       0       0       0       0       0       0       0       0       0       0       0       0       0       0       0       0       0       0       0       0       0       0       0       0       0       0       0       0       0
      Temps:          2       0       0       0       0       0       0       0       0       0       0       0       0       0       0       0       0       0       0       0       0       0       0       0       0       0       0       0       0       0       0       0       0
      Totals:         2      16       0       0       0       0       0       0       0       0       0       0       0       0       0       0       0       0       0       0       0       0       0       0       0       0       0       0       0       0       0       0       0
Total ram usage:       18 bytes
 Hardware stack levels used:    1
 Hardware stack levels required when called:    6
 This function calls:
		_clst2sect
		_disk_write
		_mem_set
		_sync_window
 This function is called by:
		_dir_next
 This function uses a non-reentrant model


 *************** function _mem_set *****************
 Defined at:
		line 660 in file "mcc_generated_files/fatfs/ff.c"
 Parameters:    Size  Location     Type
  dst             2    0[COMRAM] PTR void 
		 -> file(546), drive(563), dj.fn(12), f_chdir@dj(40), 
		 -> dj.fn(12), f_open@dj(40), NULL(0), 
  val             2    2[COMRAM] int 
  cnt             2    4[COMRAM] unsigned int 
 Auto vars:     Size  Location     Type
  d               2    6[COMRAM] PTR unsigned char 
		 -> file(546), drive(563), dj.fn(12), f_chdir@dj(40), 
		 -> dj.fn(12), f_open@dj(40), NULL(0), 
 Return value:  Size  Location     Type
                  1    wreg      void 
 Registers used:
		wreg, fsr2l, fsr2h, status,2, status,0
 Tracked objects:
		On entry : 
		On exit  : 
		Unchanged: 
 Data sizes:     COMRAM   BANK0   BANK1   BANK2   BANK3   BANK4   BANK5   BANK6   BANK7   BANK8   BANK9  BANK10  BANK11  BANK12  BANK13  BANK14  BANK15  BANK16  BANK17  BANK18  BANK19  BANK20  BANK21  BANK22  BANK23  BANK24  BANK25  BANK26  BANK27  BANK28  BANK29  BANK30  BANK31
      Params:         6       0       0       0       0       0       0       0       0       0       0       0       0       0       0       0       0       0       0       0       0       0       0       0       0       0       0       0       0       0       0       0       0
      Locals:         2       0       0       0       0       0       0       0       0       0       0       0       0       0       0       0       0       0       0       0       0       0       0       0       0       0       0       0       0       0       0       0       0
      Temps:          0       0       0       0       0       0       0       0       0       0       0       0       0       0       0       0       0       0       0       0       0       0       0       0       0       0       0       0       0       0       0       0       0
      Totals:         8       0       0       0       0       0       0       0       0       0       0       0       0       0       0       0       0       0       0       0       0       0       0       0       0       0       0       0       0       0       0       0       0
Total ram usage:        8 bytes
 Hardware stack levels used:    1
 This function calls:
		Nothing
 This function is called by:
		_sync_fs
		_dir_clear
		_dir_register
		_create_name
		_f_open
 This function uses a non-reentrant model


 *************** function _clst2sect *****************
 Defined at:
		line 1124 in file "mcc_generated_files/fatfs/ff.c"
 Parameters:    Size  Location     Type
  fs              2   12[COMRAM] PTR struct .
		 -> drive(563), NULL(0), 
  clst            4   14[COMRAM] unsigned long 
 Auto vars:     Size  Location     Type
		None
 Return value:  Size  Location     Type
                  4   12[COMRAM] unsigned long 
 Registers used:
		wreg, fsr2l, fsr2h, status,2, status,0, cstack
 Tracked objects:
		On entry : 
		On exit  : 
		Unchanged: 
 Data sizes:     COMRAM   BANK0   BANK1   BANK2   BANK3   BANK4   BANK5   BANK6   BANK7   BANK8   BANK9  BANK10  BANK11  BANK12  BANK13  BANK14  BANK15  BANK16  BANK17  BANK18  BANK19  BANK20  BANK21  BANK22  BANK23  BANK24  BANK25  BANK26  BANK27  BANK28  BANK29  BANK30  BANK31
      Params:         6       0       0       0       0       0       0       0       0       0       0       0       0       0       0       0       0       0       0       0       0       0       0       0       0       0       0       0       0       0       0       0       0
      Locals:         0       0       0       0       0       0       0       0       0       0       0       0       0       0       0       0       0       0       0       0       0       0       0       0       0       0       0       0       0       0       0       0       0
      Temps:          6       0       0       0       0       0       0       0       0       0       0       0       0       0       0       0       0       0       0       0       0       0       0       0       0       0       0       0       0       0       0       0       0
      Totals:        12       0       0       0       0       0       0       0       0       0       0       0       0       0       0       0       0       0       0       0       0       0       0       0       0       0       0       0       0       0       0       0       0
Total ram usage:       12 bytes
 Hardware stack levels used:    1
 Hardware stack levels required when called:    1
 This function calls:
		___lmul
 This function is called by:
		_dir_clear
		_dir_sdi
		_dir_next
		_f_open
		_f_write
		_f_read
 This function uses a non-reentrant model


 *************** function _create_chain *****************
 Defined at:
		line 1503 in file "mcc_generated_files/fatfs/ff.c"
 Parameters:    Size  Location     Type
  obj             2   55[BANK0 ] PTR struct .
		 -> file(546), f_chdir@dj(40), f_open@dj(40), 
  clst            4   57[BANK0 ] unsigned long 
 Auto vars:     Size  Location     Type
  cs              4   80[BANK0 ] unsigned long 
  ncl             4   74[BANK0 ] unsigned long 
  scl             4   70[BANK0 ] unsigned long 
  fs              2   78[BANK0 ] PTR struct .
		 -> drive(563), NULL(0), 
  res             1   69[BANK0 ] enum E68
 Return value:  Size  Location     Type
                  4   55[BANK0 ] unsigned long 
 Registers used:
		wreg, fsr0l, fsr0h, fsr1l, fsr1h, fsr2l, fsr2h, status,2, status,0, pclath, tosl, tblptrl, tblptrh, tblptru, prodl, prodh, cstack
 Tracked objects:
		On entry : 
		On exit  : 
		Unchanged: 
 Data sizes:     COMRAM   BANK0   BANK1   BANK2   BANK3   BANK4   BANK5   BANK6   BANK7   BANK8   BANK9  BANK10  BANK11  BANK12  BANK13  BANK14  BANK15  BANK16  BANK17  BANK18  BANK19  BANK20  BANK21  BANK22  BANK23  BANK24  BANK25  BANK26  BANK27  BANK28  BANK29  BANK30  BANK31
      Params:         0       6       0       0       0       0       0       0       0       0       0       0       0       0       0       0       0       0       0       0       0       0       0       0       0       0       0       0       0       0       0       0       0
      Locals:         0      15       0       0       0       0       0       0       0       0       0       0       0       0       0       0       0       0       0       0       0       0       0       0       0       0       0       0       0       0       0       0       0
      Temps:          0       8       0       0       0       0       0       0       0       0       0       0       0       0       0       0       0       0       0       0       0       0       0       0       0       0       0       0       0       0       0       0       0
      Totals:         0      29       0       0       0       0       0       0       0       0       0       0       0       0       0       0       0       0       0       0       0       0       0       0       0       0       0       0       0       0       0       0       0
Total ram usage:       29 bytes
 Hardware stack levels used:    1
 Hardware stack levels required when called:    8
 This function calls:
		_get_fat
		_put_fat
 This function is called by:
		_dir_next
		_f_write
 This function uses a non-reentrant model


 *************** function _put_fat *****************
 Defined at:
		line 1218 in file "mcc_generated_files/fatfs/ff.c"
 Parameters:    Size  Location     Type
  fs              2   22[BANK0 ] PTR struct .
		 -> drive(563), NULL(0), 
  clst            4   24[BANK0 ] unsigned long 
  val             4   28[BANK0 ] unsigned long 
 Auto vars:     Size  Location     Type
  bc              2   52[BANK0 ] unsigned int 
  p               2   50[BANK0 ] PTR unsigned char 
		 -> drive.win(512), drive(563), NULL(0), 
  res             1   54[BANK0 ] enum E68
 Return value:  Size  Location     Type
                  1    wreg      enum E68
 Registers used:
		wreg, fsr0l, fsr0h, fsr1l, fsr1h, fsr2l, fsr2h, status,2, status,0, pclath, tosl, tblptrl, tblptrh, tblptru, prodl, prodh, cstack
 Tracked objects:
		On entry : 
		On exit  : 
		Unchanged: 
 Data sizes:     COMRAM   BANK0   BANK1   BANK2   BANK3   BANK4   BANK5   BANK6   BANK7   BANK8   BANK9  BANK10  BANK11  BANK12  BANK13  BANK14  BANK15  BANK16  BANK17  BANK18  BANK19  BANK20  BANK21  BANK22  BANK23  BANK24  BANK25  BANK26  BANK27  BANK28  BANK29  BANK30  BANK31
      Params:         0      10       0       0       0       0       0       0       0       0       0       0       0       0       0       0       0       0       0       0       0       0       0       0       0       0       0       0       0       0       0       0       0
      Locals:         0       9       0       0       0       0       0       0       0       0       0       0       0       0       0       0       0       0       0       0       0       0       0       0       0       0       0       0       0       0       0       0       0
      Temps:          0      14       0       0       0       0       0       0       0       0       0       0       0       0       0       0       0       0       0       0       0       0       0       0       0       0       0       0       0       0       0       0       0
      Totals:         0      33       0       0       0       0       0       0       0       0       0       0       0       0       0       0       0       0       0       0       0       0       0       0       0       0       0       0       0       0       0       0       0
Total ram usage:       33 bytes
 Hardware stack levels used:    1
 Hardware stack levels required when called:    7
 This function calls:
		_ld_dword
		_move_window
		_st_dword
		_st_word
 This function is called by:
		_remove_chain
		_create_chain
 This function uses a non-reentrant model


 *************** function _st_word *****************
 Defined at:
		line 610 in file "mcc_generated_files/fatfs/ff.c"
 Parameters:    Size  Location     Type
  ptr             2    0[COMRAM] PTR unsigned char 
		 -> drive.win(512), drive(563), NULL(0), 
  val             2    2[COMRAM] unsigned short 
 Auto vars:     Size  Location     Type
		None
 Return value:  Size  Location     Type
                  1    wreg      void 
 Registers used:
		wreg, fsr2l, fsr2h, status,2, status,0
 Tracked objects:
		On entry : 
		On exit  : 
		Unchanged: 
 Data sizes:     COMRAM   BANK0   BANK1   BANK2   BANK3   BANK4   BANK5   BANK6   BANK7   BANK8   BANK9  BANK10  BANK11  BANK12  BANK13  BANK14  BANK15  BANK16  BANK17  BANK18  BANK19  BANK20  BANK21  BANK22  BANK23  BANK24  BANK25  BANK26  BANK27  BANK28  BANK29  BANK30  BANK31
      Params:         4       0       0       0       0       0       0       0       0       0       0       0       0       0       0       0       0       0       0       0       0       0       0       0       0       0       0       0       0       0       0       0       0
      Locals:         0       0       0       0       0       0       0       0       0       0       0       0       0       0       0       0       0       0       0       0       0       0       0       0       0       0       0       0       0       0       0       0       0
      Temps:          0       0       0       0       0       0       0       0       0       0       0       0       0       0       0       0       0       0       0       0       0       0       0       0       0       0       0       0       0       0       0       0       0
      Totals:         4       0       0       0       0       0       0       0       0       0       0       0       0       0       0       0       0       0       0       0       0       0       0       0       0       0       0       0       0       0       0       0       0
Total ram usage:        4 bytes
 Hardware stack levels used:    1
 This function calls:
		Nothing
 This function is called by:
		_sync_fs
		_put_fat
		_st_clust
		_f_sync
 This function uses a non-reentrant model


 *************** function _st_dword *****************
 Defined at:
		line 616 in file "mcc_generated_files/fatfs/ff.c"
 Parameters:    Size  Location     Type
  ptr             2    0[COMRAM] PTR unsigned char 
		 -> drive.win(512), drive(563), NULL(0), 
  val             4    2[COMRAM] unsigned long 
 Auto vars:     Size  Location     Type
		None
 Return value:  Size  Location     Type
                  1    wreg      void 
 Registers used:
		fsr2l, fsr2h, status,2, status,0
 Tracked objects:
		On entry : 
		On exit  : 
		Unchanged: 
 Data sizes:     COMRAM   BANK0   BANK1   BANK2   BANK3   BANK4   BANK5   BANK6   BANK7   BANK8   BANK9  BANK10  BANK11  BANK12  BANK13  BANK14  BANK15  BANK16  BANK17  BANK18  BANK19  BANK20  BANK21  BANK22  BANK23  BANK24  BANK25  BANK26  BANK27  BANK28  BANK29  BANK30  BANK31
      Params:         6       0       0       0       0       0       0       0       0       0       0       0       0       0       0       0       0       0       0       0       0       0       0       0       0       0       0       0       0       0       0       0       0
      Locals:         0       0       0       0       0       0       0       0       0       0       0       0       0       0       0       0       0       0       0       0       0       0       0       0       0       0       0       0       0       0       0       0       0
      Temps:          0       0       0       0       0       0       0       0       0       0       0       0       0       0       0       0       0       0       0       0       0       0       0       0       0       0       0       0       0       0       0       0       0
      Totals:         6       0       0       0       0       0       0       0       0       0       0       0       0       0       0       0       0       0       0       0       0       0       0       0       0       0       0       0       0       0       0       0       0
Total ram usage:        6 bytes
 Hardware stack levels used:    1
 This function calls:
		Nothing
 This function is called by:
		_sync_fs
		_put_fat
		_f_open
		_f_sync
 This function uses a non-reentrant model


 *************** function _get_fat *****************
 Defined at:
		line 1141 in file "mcc_generated_files/fatfs/ff.c"
 Parameters:    Size  Location     Type
  obj             2   22[BANK0 ] PTR struct .
		 -> file(546), f_chdir@dj(40), f_open@dj(40), 
  clst            4   24[BANK0 ] unsigned long 
 Auto vars:     Size  Location     Type
  val             4   39[BANK0 ] unsigned long 
  fs              2   47[BANK0 ] PTR struct .
		 -> drive(563), NULL(0), 
  bc              2   45[BANK0 ] unsigned int 
  wc              2   43[BANK0 ] unsigned int 
 Return value:  Size  Location     Type
                  4   22[BANK0 ] unsigned long 
 Registers used:
		wreg, fsr0l, fsr0h, fsr1l, fsr1h, fsr2l, fsr2h, status,2, status,0, pclath, tosl, tblptrl, tblptrh, tblptru, prodl, prodh, cstack
 Tracked objects:
		On entry : 
		On exit  : 
		Unchanged: 
 Data sizes:     COMRAM   BANK0   BANK1   BANK2   BANK3   BANK4   BANK5   BANK6   BANK7   BANK8   BANK9  BANK10  BANK11  BANK12  BANK13  BANK14  BANK15  BANK16  BANK17  BANK18  BANK19  BANK20  BANK21  BANK22  BANK23  BANK24  BANK25  BANK26  BANK27  BANK28  BANK29  BANK30  BANK31
      Params:         0       6       0       0       0       0       0       0       0       0       0       0       0       0       0       0       0       0       0       0       0       0       0       0       0       0       0       0       0       0       0       0       0
      Locals:         0      12       0       0       0       0       0       0       0       0       0       0       0       0       0       0       0       0       0       0       0       0       0       0       0       0       0       0       0       0       0       0       0
      Temps:          0       9       0       0       0       0       0       0       0       0       0       0       0       0       0       0       0       0       0       0       0       0       0       0       0       0       0       0       0       0       0       0       0
      Totals:         0      27       0       0       0       0       0       0       0       0       0       0       0       0       0       0       0       0       0       0       0       0       0       0       0       0       0       0       0       0       0       0       0
Total ram usage:       27 bytes
 Hardware stack levels used:    1
 Hardware stack levels required when called:    7
 This function calls:
		_ld_dword
		_ld_word
		_move_window
 This function is called by:
		_remove_chain
		_create_chain
		_dir_sdi
		_dir_next
		_f_open
		_f_read
 This function uses a non-reentrant model


 *************** function _f_mount *****************
 Defined at:
		line 3472 in file "mcc_generated_files/fatfs/ff.c"
 Parameters:    Size  Location     Type
  fs              2  100[BANK0 ] PTR struct .
		 -> drive(563), NULL(0), 
  path            2  102[BANK0 ] PTR const unsigned char 
		 -> STR_76(3), STR_8(8), STR_7(3), 
  opt             1  104[BANK0 ] unsigned char 
 Auto vars:     Size  Location     Type
  vol             2  110[BANK0 ] int 
  cfs             2  108[BANK0 ] PTR struct .
		 -> drive(563), NULL(0), 
  rp              2  106[BANK0 ] PTR const unsigned char 
		 -> STR_76(3), STR_8(8), STR_7(3), 
  res             1  105[BANK0 ] enum E68
 Return value:  Size  Location     Type
                  1    wreg      enum E68
 Registers used:
		wreg, fsr0l, fsr0h, fsr1l, fsr1h, fsr2l, fsr2h, status,2, status,0, pclath, tosl, tblptrl, tblptrh, tblptru, prodl, prodh, cstack
 Tracked objects:
		On entry : 
		On exit  : 
		Unchanged: 
 Data sizes:     COMRAM   BANK0   BANK1   BANK2   BANK3   BANK4   BANK5   BANK6   BANK7   BANK8   BANK9  BANK10  BANK11  BANK12  BANK13  BANK14  BANK15  BANK16  BANK17  BANK18  BANK19  BANK20  BANK21  BANK22  BANK23  BANK24  BANK25  BANK26  BANK27  BANK28  BANK29  BANK30  BANK31
      Params:         0       5       0       0       0       0       0       0       0       0       0       0       0       0       0       0       0       0       0       0       0       0       0       0       0       0       0       0       0       0       0       0       0
      Locals:         0       7       0       0       0       0       0       0       0       0       0       0       0       0       0       0       0       0       0       0       0       0       0       0       0       0       0       0       0       0       0       0       0
      Temps:          0       0       0       0       0       0       0       0       0       0       0       0       0       0       0       0       0       0       0       0       0       0       0       0       0       0       0       0       0       0       0       0       0
      Totals:         0      12       0       0       0       0       0       0       0       0       0       0       0       0       0       0       0       0       0       0       0       0       0       0       0       0       0       0       0       0       0       0       0
Total ram usage:       12 bytes
 Hardware stack levels used:    1
 Hardware stack levels required when called:    9
 This function calls:
		_find_volume
		_get_ldnumber
 This function is called by:
		_Save_Data
		_Cursor_Position
 This function uses a non-reentrant model


 *************** function _find_volume *****************
 Defined at:
		line 3203 in file "mcc_generated_files/fatfs/ff.c"
 Parameters:    Size  Location     Type
  path            2   29[BANK0 ] PTR PTR const unsigned c
		 -> f_chdir@path(2), f_open@path(2), f_mount@path(2), 
  rfs             2   31[BANK0 ] PTR PTR struct .
		 -> f_chdir@fs(2), f_open@fs(2), f_mount@fs(2), 
  mode            1   33[BANK0 ] unsigned char 
 Auto vars:     Size  Location     Type
  br             16   42[BANK0 ] unsigned long [4]
  bsect           4   91[BANK0 ] unsigned long 
  fasize          4   87[BANK0 ] unsigned long 
  nclst           4   83[BANK0 ] unsigned long 
  tsect           4   78[BANK0 ] unsigned long 
  sysect          4   70[BANK0 ] unsigned long 
  szbfat          4   64[BANK0 ] unsigned long 
  fs              2   98[BANK0 ] PTR struct .
		 -> drive(563), NULL(0), 
  i               2   95[BANK0 ] unsigned int 
  nrsv            2   76[BANK0 ] unsigned short 
  vol             2   74[BANK0 ] int 
  pt              2   68[BANK0 ] PTR unsigned char 
		 -> drive.win(512), drive(563), NULL(0), 
  fmt             1   97[BANK0 ] unsigned char 
  stat            1   82[BANK0 ] unsigned char 
 Return value:  Size  Location     Type
                  1    wreg      enum E68
 Registers used:
		wreg, fsr0l, fsr0h, fsr1l, fsr1h, fsr2l, fsr2h, status,2, status,0, pclath, tosl, tblptrl, tblptrh, tblptru, prodl, prodh, cstack
 Tracked objects:
		On entry : 
		On exit  : 
		Unchanged: 
 Data sizes:     COMRAM   BANK0   BANK1   BANK2   BANK3   BANK4   BANK5   BANK6   BANK7   BANK8   BANK9  BANK10  BANK11  BANK12  BANK13  BANK14  BANK15  BANK16  BANK17  BANK18  BANK19  BANK20  BANK21  BANK22  BANK23  BANK24  BANK25  BANK26  BANK27  BANK28  BANK29  BANK30  BANK31
      Params:         0       5       0       0       0       0       0       0       0       0       0       0       0       0       0       0       0       0       0       0       0       0       0       0       0       0       0       0       0       0       0       0       0
      Locals:         0      58       0       0       0       0       0       0       0       0       0       0       0       0       0       0       0       0       0       0       0       0       0       0       0       0       0       0       0       0       0       0       0
      Temps:          0       8       0       0       0       0       0       0       0       0       0       0       0       0       0       0       0       0       0       0       0       0       0       0       0       0       0       0       0       0       0       0       0
      Totals:         0      71       0       0       0       0       0       0       0       0       0       0       0       0       0       0       0       0       0       0       0       0       0       0       0       0       0       0       0       0       0       0       0
Total ram usage:       71 bytes
 Hardware stack levels used:    1
 Hardware stack levels required when called:    8
 This function calls:
		___lldiv
		___lmul
		_check_fs
		_disk_initialize
		_disk_status
		_get_ldnumber
		_ld_dword
		_ld_word
		_move_window
 This function is called by:
		_f_mount
		_f_open
		_f_chdir
 This function uses a non-reentrant model


 *************** function _ld_dword *****************
 Defined at:
		line 581 in file "mcc_generated_files/fatfs/ff.c"
 Parameters:    Size  Location     Type
  ptr             2    0[COMRAM] PTR const unsigned char 
		 -> drive.win(512), drive(563), NULL(0), 
 Auto vars:     Size  Location     Type
  rv              4    9[COMRAM] unsigned long 
 Return value:  Size  Location     Type
                  4    0[COMRAM] unsigned long 
 Registers used:
		wreg, fsr2l, fsr2h, status,2, status,0
 Tracked objects:
		On entry : 
		On exit  : 
		Unchanged: 
 Data sizes:     COMRAM   BANK0   BANK1   BANK2   BANK3   BANK4   BANK5   BANK6   BANK7   BANK8   BANK9  BANK10  BANK11  BANK12  BANK13  BANK14  BANK15  BANK16  BANK17  BANK18  BANK19  BANK20  BANK21  BANK22  BANK23  BANK24  BANK25  BANK26  BANK27  BANK28  BANK29  BANK30  BANK31
      Params:         4       0       0       0       0       0       0       0       0       0       0       0       0       0       0       0       0       0       0       0       0       0       0       0       0       0       0       0       0       0       0       0       0
      Locals:         4       0       0       0       0       0       0       0       0       0       0       0       0       0       0       0       0       0       0       0       0       0       0       0       0       0       0       0       0       0       0       0       0
      Temps:          5       0       0       0       0       0       0       0       0       0       0       0       0       0       0       0       0       0       0       0       0       0       0       0       0       0       0       0       0       0       0       0       0
      Totals:        13       0       0       0       0       0       0       0       0       0       0       0       0       0       0       0       0       0       0       0       0       0       0       0       0       0       0       0       0       0       0       0       0
Total ram usage:       13 bytes
 Hardware stack levels used:    1
 This function calls:
		Nothing
 This function is called by:
		_get_fat
		_put_fat
		_find_volume
		_f_open
 This function uses a non-reentrant model


 *************** function _get_ldnumber *****************
 Defined at:
		line 3102 in file "mcc_generated_files/fatfs/ff.c"
 Parameters:    Size  Location     Type
  path            2    0[COMRAM] PTR PTR const unsigned c
		 -> f_chdir@path(2), f_chdrive@path(2), f_open@path(2), f_mount@path(2), 
		 -> f_mount@rp(2), 
 Auto vars:     Size  Location     Type
  tp              2   13[COMRAM] PTR const unsigned char 
		 -> STR_76(3), STR_8(8), STR_7(3), 
  vol             2   11[COMRAM] int 
  tt              2    8[COMRAM] PTR const unsigned char 
		 -> STR_76(3), STR_8(8), STR_7(3), 
  i               2    6[COMRAM] int 
  tc              1   10[COMRAM] unsigned char 
 Return value:  Size  Location     Type
                  2    0[COMRAM] int 
 Registers used:
		wreg, fsr2l, fsr2h, status,2, status,0, tblptrl, tblptrh, tblptru
 Tracked objects:
		On entry : 
		On exit  : 
		Unchanged: 
 Data sizes:     COMRAM   BANK0   BANK1   BANK2   BANK3   BANK4   BANK5   BANK6   BANK7   BANK8   BANK9  BANK10  BANK11  BANK12  BANK13  BANK14  BANK15  BANK16  BANK17  BANK18  BANK19  BANK20  BANK21  BANK22  BANK23  BANK24  BANK25  BANK26  BANK27  BANK28  BANK29  BANK30  BANK31
      Params:         2       0       0       0       0       0       0       0       0       0       0       0       0       0       0       0       0       0       0       0       0       0       0       0       0       0       0       0       0       0       0       0       0
      Locals:        11       0       0       0       0       0       0       0       0       0       0       0       0       0       0       0       0       0       0       0       0       0       0       0       0       0       0       0       0       0       0       0       0
      Temps:          2       0       0       0       0       0       0       0       0       0       0       0       0       0       0       0       0       0       0       0       0       0       0       0       0       0       0       0       0       0       0       0       0
      Totals:        15       0       0       0       0       0       0       0       0       0       0       0       0       0       0       0       0       0       0       0       0       0       0       0       0       0       0       0       0       0       0       0       0
Total ram usage:       15 bytes
 Hardware stack levels used:    1
 This function calls:
		Nothing
 This function is called by:
		_find_volume
		_f_mount
		_f_chdrive
 This function uses a non-reentrant model


 *************** function _disk_status *****************
 Defined at:
		line 23 in file "mcc_generated_files/fatfs/diskio.c"
 Parameters:    Size  Location     Type
  pdrv            1    wreg     unsigned char 
 Auto vars:     Size  Location     Type
  pdrv            1    2[COMRAM] unsigned char 
  stat            1    3[COMRAM] unsigned char 
 Return value:  Size  Location     Type
                  1    wreg      unsigned char 
 Registers used:
		wreg, status,2, status,0, cstack
 Tracked objects:
		On entry : 
		On exit  : 
		Unchanged: 
 Data sizes:     COMRAM   BANK0   BANK1   BANK2   BANK3   BANK4   BANK5   BANK6   BANK7   BANK8   BANK9  BANK10  BANK11  BANK12  BANK13  BANK14  BANK15  BANK16  BANK17  BANK18  BANK19  BANK20  BANK21  BANK22  BANK23  BANK24  BANK25  BANK26  BANK27  BANK28  BANK29  BANK30  BANK31
      Params:         0       0       0       0       0       0       0       0       0       0       0       0       0       0       0       0       0       0       0       0       0       0       0       0       0       0       0       0       0       0       0       0       0
      Locals:         2       0       0       0       0       0       0       0       0       0       0       0       0       0       0       0       0       0       0       0       0       0       0       0       0       0       0       0       0       0       0       0       0
      Temps:          2       0       0       0       0       0       0       0       0       0       0       0       0       0       0       0       0       0       0       0       0       0       0       0       0       0       0       0       0       0       0       0       0
      Totals:         4       0       0       0       0       0       0       0       0       0       0       0       0       0       0       0       0       0       0       0       0       0       0       0       0       0       0       0       0       0       0       0       0
Total ram usage:        4 bytes
 Hardware stack levels used:    1
 Hardware stack levels required when called:    1
 This function calls:
		_SD_SPI_IsMediaInitialized
		_SD_SPI_IsMediaPresent
		_SD_SPI_IsWriteProtected
 This function is called by:
		_find_volume
		_validate
 This function uses a non-reentrant model


 *************** function _SD_SPI_IsWriteProtected *****************
 Defined at:
		line 475 in file "mcc_generated_files/sd_spi/sd_spi.c"
 Parameters:    Size  Location     Type
		None
 Auto vars:     Size  Location     Type
		None
 Return value:  Size  Location     Type
                  1    wreg      _Bool 
 Registers used:
		wreg
 Tracked objects:
		On entry : 
		On exit  : 
		Unchanged: 
 Data sizes:     COMRAM   BANK0   BANK1   BANK2   BANK3   BANK4   BANK5   BANK6   BANK7   BANK8   BANK9  BANK10  BANK11  BANK12  BANK13  BANK14  BANK15  BANK16  BANK17  BANK18  BANK19  BANK20  BANK21  BANK22  BANK23  BANK24  BANK25  BANK26  BANK27  BANK28  BANK29  BANK30  BANK31
      Params:         0       0       0       0       0       0       0       0       0       0       0       0       0       0       0       0       0       0       0       0       0       0       0       0       0       0       0       0       0       0       0       0       0
      Locals:         0       0       0       0       0       0       0       0       0       0       0       0       0       0       0       0       0       0       0       0       0       0       0       0       0       0       0       0       0       0       0       0       0
      Temps:          0       0       0       0       0       0       0       0       0       0       0       0       0       0       0       0       0       0       0       0       0       0       0       0       0       0       0       0       0       0       0       0       0
      Totals:         0       0       0       0       0       0       0       0       0       0       0       0       0       0       0       0       0       0       0       0       0       0       0       0       0       0       0       0       0       0       0       0       0
Total ram usage:        0 bytes
 Hardware stack levels used:    1
 This function calls:
		Nothing
 This function is called by:
		_disk_status
 This function uses a non-reentrant model


 *************** function _SD_SPI_IsMediaPresent *****************
 Defined at:
		line 367 in file "mcc_generated_files/sd_spi/sd_spi.c"
 Parameters:    Size  Location     Type
		None
 Auto vars:     Size  Location     Type
		None
 Return value:  Size  Location     Type
                  1    wreg      _Bool 
 Registers used:
		wreg
 Tracked objects:
		On entry : 
		On exit  : 
		Unchanged: 
 Data sizes:     COMRAM   BANK0   BANK1   BANK2   BANK3   BANK4   BANK5   BANK6   BANK7   BANK8   BANK9  BANK10  BANK11  BANK12  BANK13  BANK14  BANK15  BANK16  BANK17  BANK18  BANK19  BANK20  BANK21  BANK22  BANK23  BANK24  BANK25  BANK26  BANK27  BANK28  BANK29  BANK30  BANK31
      Params:         0       0       0       0       0       0       0       0       0       0       0       0       0       0       0       0       0       0       0       0       0       0       0       0       0       0       0       0       0       0       0       0       0
      Locals:         0       0       0       0       0       0       0       0       0       0       0       0       0       0       0       0       0       0       0       0       0       0       0       0       0       0       0       0       0       0       0       0       0
      Temps:          0       0       0       0       0       0       0       0       0       0       0       0       0       0       0       0       0       0       0       0       0       0       0       0       0       0       0       0       0       0       0       0       0
      Totals:         0       0       0       0       0       0       0       0       0       0       0       0       0       0       0       0       0       0       0       0       0       0       0       0       0       0       0       0       0       0       0       0       0
Total ram usage:        0 bytes
 Hardware stack levels used:    1
 This function calls:
		Nothing
 This function is called by:
		_disk_status
		_Save_Data
 This function uses a non-reentrant model


 *************** function _SD_SPI_IsMediaInitialized *****************
 Defined at:
		line 470 in file "mcc_generated_files/sd_spi/sd_spi.c"
 Parameters:    Size  Location     Type
		None
 Auto vars:     Size  Location     Type
		None
 Return value:  Size  Location     Type
                  1    wreg      _Bool 
 Registers used:
		wreg, status,2
 Tracked objects:
		On entry : 
		On exit  : 
		Unchanged: 
 Data sizes:     COMRAM   BANK0   BANK1   BANK2   BANK3   BANK4   BANK5   BANK6   BANK7   BANK8   BANK9  BANK10  BANK11  BANK12  BANK13  BANK14  BANK15  BANK16  BANK17  BANK18  BANK19  BANK20  BANK21  BANK22  BANK23  BANK24  BANK25  BANK26  BANK27  BANK28  BANK29  BANK30  BANK31
      Params:         0       0       0       0       0       0       0       0       0       0       0       0       0       0       0       0       0       0       0       0       0       0       0       0       0       0       0       0       0       0       0       0       0
      Locals:         0       0       0       0       0       0       0       0       0       0       0       0       0       0       0       0       0       0       0       0       0       0       0       0       0       0       0       0       0       0       0       0       0
      Temps:          0       0       0       0       0       0       0       0       0       0       0       0       0       0       0       0       0       0       0       0       0       0       0       0       0       0       0       0       0       0       0       0       0
      Totals:         0       0       0       0       0       0       0       0       0       0       0       0       0       0       0       0       0       0       0       0       0       0       0       0       0       0       0       0       0       0       0       0       0
Total ram usage:        0 bytes
 Hardware stack levels used:    1
 This function calls:
		Nothing
 This function is called by:
		_disk_status
 This function uses a non-reentrant model


 *************** function _disk_initialize *****************
 Defined at:
		line 60 in file "mcc_generated_files/fatfs/diskio.c"
 Parameters:    Size  Location     Type
  pdrv            1    wreg     unsigned char 
 Auto vars:     Size  Location     Type
  pdrv            1   85[COMRAM] unsigned char 
  stat            1   86[COMRAM] unsigned char 
 Return value:  Size  Location     Type
                  1    wreg      unsigned char 
 Registers used:
		wreg, fsr0l, fsr0h, fsr2l, fsr2h, status,2, status,0, pclath, tosl, tblptrl, tblptrh, tblptru, prodl, prodh, cstack
 Tracked objects:
		On entry : 
		On exit  : 
		Unchanged: 
 Data sizes:     COMRAM   BANK0   BANK1   BANK2   BANK3   BANK4   BANK5   BANK6   BANK7   BANK8   BANK9  BANK10  BANK11  BANK12  BANK13  BANK14  BANK15  BANK16  BANK17  BANK18  BANK19  BANK20  BANK21  BANK22  BANK23  BANK24  BANK25  BANK26  BANK27  BANK28  BANK29  BANK30  BANK31
      Params:         0       0       0       0       0       0       0       0       0       0       0       0       0       0       0       0       0       0       0       0       0       0       0       0       0       0       0       0       0       0       0       0       0
      Locals:         2       0       0       0       0       0       0       0       0       0       0       0       0       0       0       0       0       0       0       0       0       0       0       0       0       0       0       0       0       0       0       0       0
      Temps:          2       0       0       0       0       0       0       0       0       0       0       0       0       0       0       0       0       0       0       0       0       0       0       0       0       0       0       0       0       0       0       0       0
      Totals:         4       0       0       0       0       0       0       0       0       0       0       0       0       0       0       0       0       0       0       0       0       0       0       0       0       0       0       0       0       0       0       0       0
Total ram usage:        4 bytes
 Hardware stack levels used:    1
 Hardware stack levels required when called:    3
 This function calls:
		_SD_SPI_MediaInitialize
 This function is called by:
		_find_volume
 This function uses a non-reentrant model


 *************** function _SD_SPI_MediaInitialize *****************
 Defined at:
		line 494 in file "mcc_generated_files/sd_spi/sd_spi.c"
 Parameters:    Size  Location     Type
		None
 Auto vars:     Size  Location     Type
  CSDResponse    20   44[COMRAM] unsigned char [20]
  response        5   76[COMRAM] struct .
  c_size          4   72[COMRAM] unsigned long 
  timeout         2   81[COMRAM] unsigned short 
  count           1   71[COMRAM] unsigned char 
  block_len       1   70[COMRAM] unsigned char 
  index           1   69[COMRAM] unsigned char 
  c_size_mult     1   68[COMRAM] unsigned char 
 Return value:  Size  Location     Type
                  1    wreg      _Bool 
 Registers used:
		wreg, fsr0l, fsr0h, fsr2l, fsr2h, status,2, status,0, pclath, tosl, tblptrl, tblptrh, tblptru, prodl, prodh, cstack
 Tracked objects:
		On entry : 
		On exit  : 
		Unchanged: 
 Data sizes:     COMRAM   BANK0   BANK1   BANK2   BANK3   BANK4   BANK5   BANK6   BANK7   BANK8   BANK9  BANK10  BANK11  BANK12  BANK13  BANK14  BANK15  BANK16  BANK17  BANK18  BANK19  BANK20  BANK21  BANK22  BANK23  BANK24  BANK25  BANK26  BANK27  BANK28  BANK29  BANK30  BANK31
      Params:         0       0       0       0       0       0       0       0       0       0       0       0       0       0       0       0       0       0       0       0       0       0       0       0       0       0       0       0       0       0       0       0       0
      Locals:        39       0       0       0       0       0       0       0       0       0       0       0       0       0       0       0       0       0       0       0       0       0       0       0       0       0       0       0       0       0       0       0       0
      Temps:         11       0       0       0       0       0       0       0       0       0       0       0       0       0       0       0       0       0       0       0       0       0       0       0       0       0       0       0       0       0       0       0       0
      Totals:        50       0       0       0       0       0       0       0       0       0       0       0       0       0       0       0       0       0       0       0       0       0       0       0       0       0       0       0       0       0       0       0       0
Total ram usage:       50 bytes
 Hardware stack levels used:    1
 Hardware stack levels required when called:    2
 This function calls:
		_SDFAST_open
		_SDSLOW_open
		_SD_SPI_DelayMilliseconds
		_SD_SendCmd
		_SPI1_Close
		_SPI1_ExchangeByte
		___lmul
 This function is called by:
		_disk_initialize
 This function uses a non-reentrant model


 *************** function ___lmul *****************
 Defined at:
		line 15 in file "C:\Program Files\Microchip\xc8\v2.31\pic\sources\c99\common\Umul32.c"
 Parameters:    Size  Location     Type
  multiplier      4    0[COMRAM] unsigned long 
  multiplicand    4    4[COMRAM] unsigned long 
 Auto vars:     Size  Location     Type
  product         4    8[COMRAM] unsigned long 
 Return value:  Size  Location     Type
                  4    0[COMRAM] unsigned long 
 Registers used:
		wreg, status,2, status,0
 Tracked objects:
		On entry : 
		On exit  : 
		Unchanged: 
 Data sizes:     COMRAM   BANK0   BANK1   BANK2   BANK3   BANK4   BANK5   BANK6   BANK7   BANK8   BANK9  BANK10  BANK11  BANK12  BANK13  BANK14  BANK15  BANK16  BANK17  BANK18  BANK19  BANK20  BANK21  BANK22  BANK23  BANK24  BANK25  BANK26  BANK27  BANK28  BANK29  BANK30  BANK31
      Params:         8       0       0       0       0       0       0       0       0       0       0       0       0       0       0       0       0       0       0       0       0       0       0       0       0       0       0       0       0       0       0       0       0
      Locals:         4       0       0       0       0       0       0       0       0       0       0       0       0       0       0       0       0       0       0       0       0       0       0       0       0       0       0       0       0       0       0       0       0
      Temps:          0       0       0       0       0       0       0       0       0       0       0       0       0       0       0       0       0       0       0       0       0       0       0       0       0       0       0       0       0       0       0       0       0
      Totals:        12       0       0       0       0       0       0       0       0       0       0       0       0       0       0       0       0       0       0       0       0       0       0       0       0       0       0       0       0       0       0       0       0
Total ram usage:       12 bytes
 Hardware stack levels used:    1
 This function calls:
		Nothing
 This function is called by:
		_clst2sect
		_find_volume
		_SD_SPI_MediaInitialize
 This function uses a non-reentrant model


 *************** function _SD_SPI_DelayMilliseconds *****************
 Defined at:
		line 483 in file "mcc_generated_files/sd_spi/sd_spi.c"
 Parameters:    Size  Location     Type
  milliseconds    1    wreg     unsigned char 
 Auto vars:     Size  Location     Type
  milliseconds    1    3[COMRAM] unsigned char 
  timeout         2    1[COMRAM] unsigned short 
 Return value:  Size  Location     Type
                  1    wreg      void 
 Registers used:
		wreg, status,2, status,0, pclath, tosl, tblptrl, tblptrh, tblptru, prodl, prodh, cstack
 Tracked objects:
		On entry : 
		On exit  : 
		Unchanged: 
 Data sizes:     COMRAM   BANK0   BANK1   BANK2   BANK3   BANK4   BANK5   BANK6   BANK7   BANK8   BANK9  BANK10  BANK11  BANK12  BANK13  BANK14  BANK15  BANK16  BANK17  BANK18  BANK19  BANK20  BANK21  BANK22  BANK23  BANK24  BANK25  BANK26  BANK27  BANK28  BANK29  BANK30  BANK31
      Params:         0       0       0       0       0       0       0       0       0       0       0       0       0       0       0       0       0       0       0       0       0       0       0       0       0       0       0       0       0       0       0       0       0
      Locals:         3       0       0       0       0       0       0       0       0       0       0       0       0       0       0       0       0       0       0       0       0       0       0       0       0       0       0       0       0       0       0       0       0
      Temps:          0       0       0       0       0       0       0       0       0       0       0       0       0       0       0       0       0       0       0       0       0       0       0       0       0       0       0       0       0       0       0       0       0
      Totals:         3       0       0       0       0       0       0       0       0       0       0       0       0       0       0       0       0       0       0       0       0       0       0       0       0       0       0       0       0       0       0       0       0
Total ram usage:        3 bytes
 Hardware stack levels used:    1
 Hardware stack levels required when called:    1
 This function calls:
		_SPI1_ExchangeByte
 This function is called by:
		_SD_SPI_MediaInitialize
 This function uses a non-reentrant model


 *************** function _check_fs *****************
 Defined at:
		line 3176 in file "mcc_generated_files/fatfs/ff.c"
 Parameters:    Size  Location     Type
  fs              2   22[BANK0 ] PTR struct .
		 -> drive(563), NULL(0), 
  sect            4   24[BANK0 ] unsigned long 
 Auto vars:     Size  Location     Type
		None
 Return value:  Size  Location     Type
                  1    wreg      unsigned char 
 Registers used:
		wreg, fsr0l, fsr0h, fsr1l, fsr1h, fsr2l, fsr2h, status,2, status,0, pclath, tosl, tblptrl, tblptrh, tblptru, prodl, prodh, cstack
 Tracked objects:
		On entry : 
		On exit  : 
		Unchanged: 
 Data sizes:     COMRAM   BANK0   BANK1   BANK2   BANK3   BANK4   BANK5   BANK6   BANK7   BANK8   BANK9  BANK10  BANK11  BANK12  BANK13  BANK14  BANK15  BANK16  BANK17  BANK18  BANK19  BANK20  BANK21  BANK22  BANK23  BANK24  BANK25  BANK26  BANK27  BANK28  BANK29  BANK30  BANK31
      Params:         0       6       0       0       0       0       0       0       0       0       0       0       0       0       0       0       0       0       0       0       0       0       0       0       0       0       0       0       0       0       0       0       0
      Locals:         0       0       0       0       0       0       0       0       0       0       0       0       0       0       0       0       0       0       0       0       0       0       0       0       0       0       0       0       0       0       0       0       0
      Temps:          0       1       0       0       0       0       0       0       0       0       0       0       0       0       0       0       0       0       0       0       0       0       0       0       0       0       0       0       0       0       0       0       0
      Totals:         0       7       0       0       0       0       0       0       0       0       0       0       0       0       0       0       0       0       0       0       0       0       0       0       0       0       0       0       0       0       0       0       0
Total ram usage:        7 bytes
 Hardware stack levels used:    1
 Hardware stack levels required when called:    7
 This function calls:
		_ld_word
		_mem_cmp
		_move_window
 This function is called by:
		_find_volume
 This function uses a non-reentrant model


 *************** function _move_window *****************
 Defined at:
		line 1056 in file "mcc_generated_files/fatfs/ff.c"
 Parameters:    Size  Location     Type
  fs              2   16[BANK0 ] PTR struct .
		 -> drive(563), NULL(0), 
  sector          4   18[BANK0 ] unsigned long 
 Auto vars:     Size  Location     Type
  res             1   94[COMRAM] enum E68
 Return value:  Size  Location     Type
                  1    wreg      enum E68
 Registers used:
		wreg, fsr0l, fsr0h, fsr1l, fsr1h, fsr2l, fsr2h, status,2, status,0, pclath, tosl, tblptrl, tblptrh, tblptru, prodl, prodh, cstack
 Tracked objects:
		On entry : 
		On exit  : 
		Unchanged: 
 Data sizes:     COMRAM   BANK0   BANK1   BANK2   BANK3   BANK4   BANK5   BANK6   BANK7   BANK8   BANK9  BANK10  BANK11  BANK12  BANK13  BANK14  BANK15  BANK16  BANK17  BANK18  BANK19  BANK20  BANK21  BANK22  BANK23  BANK24  BANK25  BANK26  BANK27  BANK28  BANK29  BANK30  BANK31
      Params:         0       6       0       0       0       0       0       0       0       0       0       0       0       0       0       0       0       0       0       0       0       0       0       0       0       0       0       0       0       0       0       0       0
      Locals:         1       0       0       0       0       0       0       0       0       0       0       0       0       0       0       0       0       0       0       0       0       0       0       0       0       0       0       0       0       0       0       0       0
      Temps:          4       0       0       0       0       0       0       0       0       0       0       0       0       0       0       0       0       0       0       0       0       0       0       0       0       0       0       0       0       0       0       0       0
      Totals:         5       6       0       0       0       0       0       0       0       0       0       0       0       0       0       0       0       0       0       0       0       0       0       0       0       0       0       0       0       0       0       0       0
Total ram usage:       11 bytes
 Hardware stack levels used:    1
 Hardware stack levels required when called:    6
 This function calls:
		_disk_read
		_sync_window
 This function is called by:
		_get_fat
		_put_fat
		_dir_alloc
		_dir_find
		_dir_register
		_check_fs
		_find_volume
		_f_open
		_f_sync
 This function uses a non-reentrant model


 *************** function _sync_window *****************
 Defined at:
		line 1034 in file "mcc_generated_files/fatfs/ff.c"
 Parameters:    Size  Location     Type
  fs              2   87[COMRAM] PTR struct .
		 -> drive(563), NULL(0), 
 Auto vars:     Size  Location     Type
  res             1   89[COMRAM] enum E68
 Return value:  Size  Location     Type
                  1    wreg      enum E68
 Registers used:
		wreg, fsr0l, fsr0h, fsr1l, fsr1h, fsr2l, fsr2h, status,2, status,0, pclath, tosl, tblptrl, tblptrh, tblptru, prodl, prodh, cstack
 Tracked objects:
		On entry : 
		On exit  : 
		Unchanged: 
 Data sizes:     COMRAM   BANK0   BANK1   BANK2   BANK3   BANK4   BANK5   BANK6   BANK7   BANK8   BANK9  BANK10  BANK11  BANK12  BANK13  BANK14  BANK15  BANK16  BANK17  BANK18  BANK19  BANK20  BANK21  BANK22  BANK23  BANK24  BANK25  BANK26  BANK27  BANK28  BANK29  BANK30  BANK31
      Params:         2       0       0       0       0       0       0       0       0       0       0       0       0       0       0       0       0       0       0       0       0       0       0       0       0       0       0       0       0       0       0       0       0
      Locals:         1       0       0       0       0       0       0       0       0       0       0       0       0       0       0       0       0       0       0       0       0       0       0       0       0       0       0       0       0       0       0       0       0
      Temps:          0      16       0       0       0       0       0       0       0       0       0       0       0       0       0       0       0       0       0       0       0       0       0       0       0       0       0       0       0       0       0       0       0
      Totals:         3      16       0       0       0       0       0       0       0       0       0       0       0       0       0       0       0       0       0       0       0       0       0       0       0       0       0       0       0       0       0       0       0
Total ram usage:       19 bytes
 Hardware stack levels used:    1
 Hardware stack levels required when called:    5
 This function calls:
		_disk_write
 This function is called by:
		_move_window
		_sync_fs
		_dir_clear
 This function uses a non-reentrant model


 *************** function _disk_write *****************
 Defined at:
		line 124 in file "mcc_generated_files/fatfs/diskio.c"
 Parameters:    Size  Location     Type
  pdrv            1    wreg     unsigned char 
  buff            2   75[COMRAM] PTR const unsigned char 
		 -> drive.win(512), file.buf(512), savedMessage(12), file(546), 
		 -> drive(563), Save_Data@newLine(3), NULL(0), 
  sector          4   77[COMRAM] unsigned long 
  count           2   81[COMRAM] unsigned int 
 Auto vars:     Size  Location     Type
  pdrv            1   85[COMRAM] unsigned char 
  res             1   86[COMRAM] enum E12
 Return value:  Size  Location     Type
                  1    wreg      enum E208
 Registers used:
		wreg, fsr0l, fsr0h, fsr1l, fsr1h, fsr2l, fsr2h, status,2, status,0, pclath, tosl, tblptrl, tblptrh, tblptru, prodl, prodh, cstack
 Tracked objects:
		On entry : 
		On exit  : 
		Unchanged: 
 Data sizes:     COMRAM   BANK0   BANK1   BANK2   BANK3   BANK4   BANK5   BANK6   BANK7   BANK8   BANK9  BANK10  BANK11  BANK12  BANK13  BANK14  BANK15  BANK16  BANK17  BANK18  BANK19  BANK20  BANK21  BANK22  BANK23  BANK24  BANK25  BANK26  BANK27  BANK28  BANK29  BANK30  BANK31
      Params:         8       0       0       0       0       0       0       0       0       0       0       0       0       0       0       0       0       0       0       0       0       0       0       0       0       0       0       0       0       0       0       0       0
      Locals:         2       0       0       0       0       0       0       0       0       0       0       0       0       0       0       0       0       0       0       0       0       0       0       0       0       0       0       0       0       0       0       0       0
      Temps:          2       0       0       0       0       0       0       0       0       0       0       0       0       0       0       0       0       0       0       0       0       0       0       0       0       0       0       0       0       0       0       0       0
      Totals:        12       0       0       0       0       0       0       0       0       0       0       0       0       0       0       0       0       0       0       0       0       0       0       0       0       0       0       0       0       0       0       0       0
Total ram usage:       12 bytes
 Hardware stack levels used:    1
 Hardware stack levels required when called:    4
 This function calls:
		_SD_SPI_SectorWrite
 This function is called by:
		_sync_window
		_sync_fs
		_dir_clear
		_f_write
		_f_sync
		_f_read
 This function uses a non-reentrant model


 *************** function _SD_SPI_SectorWrite *****************
 Defined at:
		line 426 in file "mcc_generated_files/sd_spi/sd_spi.c"
 Parameters:    Size  Location     Type
  sector_addre    4   48[COMRAM] unsigned long 
  buffer          2   52[COMRAM] PTR const unsigned char 
		 -> drive.win(512), file.buf(512), savedMessage(12), file(546), 
		 -> drive(563), Save_Data@newLine(3), NULL(0), 
  sector_count    2   54[COMRAM] unsigned short 
 Auto vars:     Size  Location     Type
  info           13   62[COMRAM] struct SD_ASYNC_IO
  i               2   60[COMRAM] unsigned short 
  status          1   59[COMRAM] unsigned char 
  result          1   58[COMRAM] _Bool 
 Return value:  Size  Location     Type
                  1    wreg      _Bool 
 Registers used:
		wreg, fsr0l, fsr0h, fsr1l, fsr1h, fsr2l, fsr2h, status,2, status,0, pclath, tosl, tblptrl, tblptrh, tblptru, prodl, prodh, cstack
 Tracked objects:
		On entry : 
		On exit  : 
		Unchanged: 
 Data sizes:     COMRAM   BANK0   BANK1   BANK2   BANK3   BANK4   BANK5   BANK6   BANK7   BANK8   BANK9  BANK10  BANK11  BANK12  BANK13  BANK14  BANK15  BANK16  BANK17  BANK18  BANK19  BANK20  BANK21  BANK22  BANK23  BANK24  BANK25  BANK26  BANK27  BANK28  BANK29  BANK30  BANK31
      Params:         8       0       0       0       0       0       0       0       0       0       0       0       0       0       0       0       0       0       0       0       0       0       0       0       0       0       0       0       0       0       0       0       0
      Locals:        17       0       0       0       0       0       0       0       0       0       0       0       0       0       0       0       0       0       0       0       0       0       0       0       0       0       0       0       0       0       0       0       0
      Temps:          2       0       0       0       0       0       0       0       0       0       0       0       0       0       0       0       0       0       0       0       0       0       0       0       0       0       0       0       0       0       0       0       0
      Totals:        27       0       0       0       0       0       0       0       0       0       0       0       0       0       0       0       0       0       0       0       0       0       0       0       0       0       0       0       0       0       0       0       0
Total ram usage:       27 bytes
 Hardware stack levels used:    1
 Hardware stack levels required when called:    3
 This function calls:
		_SDFAST_open
		_SDSLOW_open
		_SD_SPI_AsyncWriteTasks
		_SPI1_Close
 This function is called by:
		_disk_write
 This function uses a non-reentrant model


 *************** function _SD_SPI_AsyncWriteTasks *****************
 Defined at:
		line 1001 in file "mcc_generated_files/sd_spi/sd_spi.c"
 Parameters:    Size  Location     Type
  info            2   33[COMRAM] PTR struct SD_ASYNC_IO
		 -> SD_SPI_SectorWrite@info(13), 
 Auto vars:     Size  Location     Type
  response        5   39[COMRAM] struct .
  preEraseBloc    4   44[COMRAM] unsigned long 
 Return value:  Size  Location     Type
                  1    wreg      unsigned char 
 Registers used:
		wreg, fsr0l, fsr0h, fsr1l, fsr1h, fsr2l, fsr2h, status,2, status,0, pclath, tosl, tblptrl, tblptrh, tblptru, prodl, prodh, cstack
 Tracked objects:
		On entry : 
		On exit  : 
		Unchanged: 
 Data sizes:     COMRAM   BANK0   BANK1   BANK2   BANK3   BANK4   BANK5   BANK6   BANK7   BANK8   BANK9  BANK10  BANK11  BANK12  BANK13  BANK14  BANK15  BANK16  BANK17  BANK18  BANK19  BANK20  BANK21  BANK22  BANK23  BANK24  BANK25  BANK26  BANK27  BANK28  BANK29  BANK30  BANK31
      Params:         2       0       0       0       0       0       0       0       0       0       0       0       0       0       0       0       0       0       0       0       0       0       0       0       0       0       0       0       0       0       0       0       0
      Locals:         9       0       0       0       0       0       0       0       0       0       0       0       0       0       0       0       0       0       0       0       0       0       0       0       0       0       0       0       0       0       0       0       0
      Temps:          4       0       0       0       0       0       0       0       0       0       0       0       0       0       0       0       0       0       0       0       0       0       0       0       0       0       0       0       0       0       0       0       0
      Totals:        15       0       0       0       0       0       0       0       0       0       0       0       0       0       0       0       0       0       0       0       0       0       0       0       0       0       0       0       0       0       0       0       0
Total ram usage:       15 bytes
 Hardware stack levels used:    1
 Hardware stack levels required when called:    2
 This function calls:
		_SD_SendCmd
		_SPI1_ExchangeBlock
		_SPI1_ExchangeByte
 This function is called by:
		_SD_SPI_SectorWrite
 This function uses a non-reentrant model


 *************** function _disk_read *****************
 Defined at:
		line 90 in file "mcc_generated_files/fatfs/diskio.c"
 Parameters:    Size  Location     Type
  pdrv            1    wreg     unsigned char 
  buff            2   72[COMRAM] PTR unsigned char 
		 -> file(546), drive(563), NULL(0), 
  sector          4   74[COMRAM] unsigned long 
  count           2   78[COMRAM] unsigned int 
 Auto vars:     Size  Location     Type
  pdrv            1   82[COMRAM] unsigned char 
  res             1   83[COMRAM] enum E12
 Return value:  Size  Location     Type
                  1    wreg      enum E208
 Registers used:
		wreg, fsr0l, fsr0h, fsr1l, fsr1h, fsr2l, fsr2h, status,2, status,0, pclath, tosl, tblptrl, tblptrh, tblptru, prodl, prodh, cstack
 Tracked objects:
		On entry : 
		On exit  : 
		Unchanged: 
 Data sizes:     COMRAM   BANK0   BANK1   BANK2   BANK3   BANK4   BANK5   BANK6   BANK7   BANK8   BANK9  BANK10  BANK11  BANK12  BANK13  BANK14  BANK15  BANK16  BANK17  BANK18  BANK19  BANK20  BANK21  BANK22  BANK23  BANK24  BANK25  BANK26  BANK27  BANK28  BANK29  BANK30  BANK31
      Params:         8       0       0       0       0       0       0       0       0       0       0       0       0       0       0       0       0       0       0       0       0       0       0       0       0       0       0       0       0       0       0       0       0
      Locals:         2       0       0       0       0       0       0       0       0       0       0       0       0       0       0       0       0       0       0       0       0       0       0       0       0       0       0       0       0       0       0       0       0
      Temps:          2       0       0       0       0       0       0       0       0       0       0       0       0       0       0       0       0       0       0       0       0       0       0       0       0       0       0       0       0       0       0       0       0
      Totals:        12       0       0       0       0       0       0       0       0       0       0       0       0       0       0       0       0       0       0       0       0       0       0       0       0       0       0       0       0       0       0       0       0
Total ram usage:       12 bytes
 Hardware stack levels used:    1
 Hardware stack levels required when called:    4
 This function calls:
		_SD_SPI_SectorRead
 This function is called by:
		_move_window
		_f_open
		_f_write
		_f_read
 This function uses a non-reentrant model


 *************** function _SD_SPI_SectorRead *****************
 Defined at:
		line 382 in file "mcc_generated_files/sd_spi/sd_spi.c"
 Parameters:    Size  Location     Type
  sector_addre    4   45[COMRAM] unsigned long 
  buffer          2   49[COMRAM] PTR unsigned char 
		 -> file(546), drive(563), NULL(0), 
  sector_count    2   51[COMRAM] unsigned short 
 Auto vars:     Size  Location     Type
  info           13   59[COMRAM] struct SD_ASYNC_IO
  i               2   57[COMRAM] unsigned short 
  status          1   56[COMRAM] unsigned char 
  result          1   55[COMRAM] _Bool 
 Return value:  Size  Location     Type
                  1    wreg      _Bool 
 Registers used:
		wreg, fsr0l, fsr0h, fsr1l, fsr1h, fsr2l, fsr2h, status,2, status,0, pclath, tosl, tblptrl, tblptrh, tblptru, prodl, prodh, cstack
 Tracked objects:
		On entry : 
		On exit  : 
		Unchanged: 
 Data sizes:     COMRAM   BANK0   BANK1   BANK2   BANK3   BANK4   BANK5   BANK6   BANK7   BANK8   BANK9  BANK10  BANK11  BANK12  BANK13  BANK14  BANK15  BANK16  BANK17  BANK18  BANK19  BANK20  BANK21  BANK22  BANK23  BANK24  BANK25  BANK26  BANK27  BANK28  BANK29  BANK30  BANK31
      Params:         8       0       0       0       0       0       0       0       0       0       0       0       0       0       0       0       0       0       0       0       0       0       0       0       0       0       0       0       0       0       0       0       0
      Locals:        17       0       0       0       0       0       0       0       0       0       0       0       0       0       0       0       0       0       0       0       0       0       0       0       0       0       0       0       0       0       0       0       0
      Temps:          2       0       0       0       0       0       0       0       0       0       0       0       0       0       0       0       0       0       0       0       0       0       0       0       0       0       0       0       0       0       0       0       0
      Totals:        27       0       0       0       0       0       0       0       0       0       0       0       0       0       0       0       0       0       0       0       0       0       0       0       0       0       0       0       0       0       0       0       0
Total ram usage:       27 bytes
 Hardware stack levels used:    1
 Hardware stack levels required when called:    3
 This function calls:
		_SDFAST_open
		_SDSLOW_open
		_SD_SPI_AsyncReadTasks
		_SPI1_Close
 This function is called by:
		_disk_read
 This function uses a non-reentrant model


 *************** function _SPI1_Close *****************
 Defined at:
		line 97 in file "mcc_generated_files/spi1.c"
 Parameters:    Size  Location     Type
		None
 Auto vars:     Size  Location     Type
		None
 Return value:  Size  Location     Type
                  1    wreg      void 
 Registers used:
		None
 Tracked objects:
		On entry : 
		On exit  : 
		Unchanged: 
 Data sizes:     COMRAM   BANK0   BANK1   BANK2   BANK3   BANK4   BANK5   BANK6   BANK7   BANK8   BANK9  BANK10  BANK11  BANK12  BANK13  BANK14  BANK15  BANK16  BANK17  BANK18  BANK19  BANK20  BANK21  BANK22  BANK23  BANK24  BANK25  BANK26  BANK27  BANK28  BANK29  BANK30  BANK31
      Params:         0       0       0       0       0       0       0       0       0       0       0       0       0       0       0       0       0       0       0       0       0       0       0       0       0       0       0       0       0       0       0       0       0
      Locals:         0       0       0       0       0       0       0       0       0       0       0       0       0       0       0       0       0       0       0       0       0       0       0       0       0       0       0       0       0       0       0       0       0
      Temps:          0       0       0       0       0       0       0       0       0       0       0       0       0       0       0       0       0       0       0       0       0       0       0       0       0       0       0       0       0       0       0       0       0
      Totals:         0       0       0       0       0       0       0       0       0       0       0       0       0       0       0       0       0       0       0       0       0       0       0       0       0       0       0       0       0       0       0       0       0
Total ram usage:        0 bytes
 Hardware stack levels used:    1
 This function calls:
		Nothing
 This function is called by:
		_SD_SPI_SectorWrite
		_SD_SPI_SectorRead
		_SD_SPI_MediaInitialize
 This function uses a non-reentrant model


 *************** function _SD_SPI_AsyncReadTasks *****************
 Defined at:
		line 825 in file "mcc_generated_files/sd_spi/sd_spi.c"
 Parameters:    Size  Location     Type
  info            2   33[COMRAM] PTR struct SD_ASYNC_IO
		 -> SD_SPI_SectorRead@info(13), 
 Auto vars:     Size  Location     Type
  response        5   39[COMRAM] struct .
  bData           1   44[COMRAM] unsigned char 
 Return value:  Size  Location     Type
                  1    wreg      unsigned char 
 Registers used:
		wreg, fsr0l, fsr0h, fsr1l, fsr1h, fsr2l, fsr2h, status,2, status,0, pclath, tosl, tblptrl, tblptrh, tblptru, prodl, prodh, cstack
 Tracked objects:
		On entry : 
		On exit  : 
		Unchanged: 
 Data sizes:     COMRAM   BANK0   BANK1   BANK2   BANK3   BANK4   BANK5   BANK6   BANK7   BANK8   BANK9  BANK10  BANK11  BANK12  BANK13  BANK14  BANK15  BANK16  BANK17  BANK18  BANK19  BANK20  BANK21  BANK22  BANK23  BANK24  BANK25  BANK26  BANK27  BANK28  BANK29  BANK30  BANK31
      Params:         2       0       0       0       0       0       0       0       0       0       0       0       0       0       0       0       0       0       0       0       0       0       0       0       0       0       0       0       0       0       0       0       0
      Locals:         6       0       0       0       0       0       0       0       0       0       0       0       0       0       0       0       0       0       0       0       0       0       0       0       0       0       0       0       0       0       0       0       0
      Temps:          4       0       0       0       0       0       0       0       0       0       0       0       0       0       0       0       0       0       0       0       0       0       0       0       0       0       0       0       0       0       0       0       0
      Totals:        12       0       0       0       0       0       0       0       0       0       0       0       0       0       0       0       0       0       0       0       0       0       0       0       0       0       0       0       0       0       0       0       0
Total ram usage:       12 bytes
 Hardware stack levels used:    1
 Hardware stack levels required when called:    2
 This function calls:
		_SD_SendCmd
		_SPI1_ExchangeBlock
		_SPI1_ExchangeByte
		_memset
 This function is called by:
		_SD_SPI_SectorRead
 This function uses a non-reentrant model


 *************** function _memset *****************
 Defined at:
		line 4 in file "C:\Program Files\Microchip\xc8\v2.31\pic\sources\c99\common\memset.c"
 Parameters:    Size  Location     Type
  dest            2    0[COMRAM] PTR void 
		 -> drive.win(512), file.buf(512), messageStr(12), savedMessage(12), 
		 -> file(546), drive(563), Save_Data@newLine(3), NULL(0), 
  c               2    2[COMRAM] int 
  n               2    4[COMRAM] unsigned int 
 Auto vars:     Size  Location     Type
  s               2   10[COMRAM] PTR unsigned char 
		 -> drive.win(512), file.buf(512), messageStr(12), savedMessage(12), 
		 -> file(546), drive(563), Save_Data@newLine(3), NULL(0), 
  k               2    8[COMRAM] unsigned int 
 Return value:  Size  Location     Type
                  2    0[COMRAM] PTR void 
 Registers used:
		wreg, fsr2l, fsr2h, status,2, status,0
 Tracked objects:
		On entry : 
		On exit  : 
		Unchanged: 
 Data sizes:     COMRAM   BANK0   BANK1   BANK2   BANK3   BANK4   BANK5   BANK6   BANK7   BANK8   BANK9  BANK10  BANK11  BANK12  BANK13  BANK14  BANK15  BANK16  BANK17  BANK18  BANK19  BANK20  BANK21  BANK22  BANK23  BANK24  BANK25  BANK26  BANK27  BANK28  BANK29  BANK30  BANK31
      Params:         6       0       0       0       0       0       0       0       0       0       0       0       0       0       0       0       0       0       0       0       0       0       0       0       0       0       0       0       0       0       0       0       0
      Locals:         4       0       0       0       0       0       0       0       0       0       0       0       0       0       0       0       0       0       0       0       0       0       0       0       0       0       0       0       0       0       0       0       0
      Temps:          2       0       0       0       0       0       0       0       0       0       0       0       0       0       0       0       0       0       0       0       0       0       0       0       0       0       0       0       0       0       0       0       0
      Totals:        12       0       0       0       0       0       0       0       0       0       0       0       0       0       0       0       0       0       0       0       0       0       0       0       0       0       0       0       0       0       0       0       0
Total ram usage:       12 bytes
 Hardware stack levels used:    1
 This function calls:
		Nothing
 This function is called by:
		_SD_SPI_AsyncReadTasks
		_Save_Data
		_Logging_Check
 This function uses a non-reentrant model


 *************** function _SPI1_ExchangeBlock *****************
 Defined at:
		line 110 in file "mcc_generated_files/spi1.c"
 Parameters:    Size  Location     Type
  block           2    0[COMRAM] PTR void 
		 -> drive.win(512), file.buf(512), savedMessage(12), file(546), 
		 -> drive(563), Save_Data@newLine(3), NULL(0), 
  blockSize       2    2[COMRAM] unsigned int 
 Auto vars:     Size  Location     Type
  data            2    4[COMRAM] PTR unsigned char 
		 -> drive.win(512), file.buf(512), savedMessage(12), file(546), 
		 -> drive(563), Save_Data@newLine(3), NULL(0), 
 Return value:  Size  Location     Type
                  1    wreg      void 
 Registers used:
		wreg, fsr2l, fsr2h, status,2, status,0
 Tracked objects:
		On entry : 
		On exit  : 
		Unchanged: 
 Data sizes:     COMRAM   BANK0   BANK1   BANK2   BANK3   BANK4   BANK5   BANK6   BANK7   BANK8   BANK9  BANK10  BANK11  BANK12  BANK13  BANK14  BANK15  BANK16  BANK17  BANK18  BANK19  BANK20  BANK21  BANK22  BANK23  BANK24  BANK25  BANK26  BANK27  BANK28  BANK29  BANK30  BANK31
      Params:         4       0       0       0       0       0       0       0       0       0       0       0       0       0       0       0       0       0       0       0       0       0       0       0       0       0       0       0       0       0       0       0       0
      Locals:         2       0       0       0       0       0       0       0       0       0       0       0       0       0       0       0       0       0       0       0       0       0       0       0       0       0       0       0       0       0       0       0       0
      Temps:          0       0       0       0       0       0       0       0       0       0       0       0       0       0       0       0       0       0       0       0       0       0       0       0       0       0       0       0       0       0       0       0       0
      Totals:         6       0       0       0       0       0       0       0       0       0       0       0       0       0       0       0       0       0       0       0       0       0       0       0       0       0       0       0       0       0       0       0       0
Total ram usage:        6 bytes
 Hardware stack levels used:    1
 This function calls:
		Nothing
 This function is called by:
		_SD_SPI_AsyncWriteTasks
		_SD_SPI_AsyncReadTasks
 This function uses a non-reentrant model


 *************** function _SD_SendCmd *****************
 Defined at:
		line 1247 in file "mcc_generated_files/sd_spi/sd_spi.c"
 Parameters:    Size  Location     Type
  cmd             1    wreg     unsigned char 
  address         4   11[COMRAM] unsigned long 
 Auto vars:     Size  Location     Type
  cmd             1   27[COMRAM] unsigned char 
  response        5   28[COMRAM] struct .
  address_byte    4   21[COMRAM] unsigned char [4]
  longTimeout     4   17[COMRAM] unsigned long 
  timeout         2   25[COMRAM] unsigned short 
 Return value:  Size  Location     Type
                  5   11[COMRAM] struct .
 Registers used:
		wreg, fsr0l, fsr0h, fsr2l, fsr2h, status,2, status,0, pclath, tosl, tblptrl, tblptrh, tblptru, prodl, prodh, cstack
 Tracked objects:
		On entry : 
		On exit  : 
		Unchanged: 
 Data sizes:     COMRAM   BANK0   BANK1   BANK2   BANK3   BANK4   BANK5   BANK6   BANK7   BANK8   BANK9  BANK10  BANK11  BANK12  BANK13  BANK14  BANK15  BANK16  BANK17  BANK18  BANK19  BANK20  BANK21  BANK22  BANK23  BANK24  BANK25  BANK26  BANK27  BANK28  BANK29  BANK30  BANK31
      Params:         6       0       0       0       0       0       0       0       0       0       0       0       0       0       0       0       0       0       0       0       0       0       0       0       0       0       0       0       0       0       0       0       0
      Locals:        16       0       0       0       0       0       0       0       0       0       0       0       0       0       0       0       0       0       0       0       0       0       0       0       0       0       0       0       0       0       0       0       0
      Temps:          0       0       0       0       0       0       0       0       0       0       0       0       0       0       0       0       0       0       0       0       0       0       0       0       0       0       0       0       0       0       0       0       0
      Totals:        22       0       0       0       0       0       0       0       0       0       0       0       0       0       0       0       0       0       0       0       0       0       0       0       0       0       0       0       0       0       0       0       0
Total ram usage:       22 bytes
 Hardware stack levels used:    1
 Hardware stack levels required when called:    1
 This function calls:
		_SPI1_ExchangeByte
		_memcpy
 This function is called by:
		_SD_SPI_MediaInitialize
		_SD_SPI_AsyncReadTasks
		_SD_SPI_AsyncWriteTasks
 This function uses a non-reentrant model


 *************** function _memcpy *****************
 Defined at:
		line 4 in file "C:\Program Files\Microchip\xc8\v2.31\pic\sources\c99\common\memcpy.c"
 Parameters:    Size  Location     Type
  d1              2    0[COMRAM] PTR void 
		 -> SD_SendCmd@address_bytes(4), 
  s1              2    2[COMRAM] PTR const void 
		 -> SD_SendCmd@address(4), 
  n               2    4[COMRAM] unsigned int 
 Auto vars:     Size  Location     Type
  s               2    8[COMRAM] PTR const unsigned char 
		 -> SD_SendCmd@address(4), 
  d               2    6[COMRAM] PTR unsigned char 
		 -> SD_SendCmd@address_bytes(4), 
  tmp             1   10[COMRAM] unsigned char 
 Return value:  Size  Location     Type
                  2    0[COMRAM] PTR void 
 Registers used:
		wreg, fsr2l, fsr2h, status,2, status,0
 Tracked objects:
		On entry : 
		On exit  : 
		Unchanged: 
 Data sizes:     COMRAM   BANK0   BANK1   BANK2   BANK3   BANK4   BANK5   BANK6   BANK7   BANK8   BANK9  BANK10  BANK11  BANK12  BANK13  BANK14  BANK15  BANK16  BANK17  BANK18  BANK19  BANK20  BANK21  BANK22  BANK23  BANK24  BANK25  BANK26  BANK27  BANK28  BANK29  BANK30  BANK31
      Params:         6       0       0       0       0       0       0       0       0       0       0       0       0       0       0       0       0       0       0       0       0       0       0       0       0       0       0       0       0       0       0       0       0
      Locals:         5       0       0       0       0       0       0       0       0       0       0       0       0       0       0       0       0       0       0       0       0       0       0       0       0       0       0       0       0       0       0       0       0
      Temps:          0       0       0       0       0       0       0       0       0       0       0       0       0       0       0       0       0       0       0       0       0       0       0       0       0       0       0       0       0       0       0       0       0
      Totals:        11       0       0       0       0       0       0       0       0       0       0       0       0       0       0       0       0       0       0       0       0       0       0       0       0       0       0       0       0       0       0       0       0
Total ram usage:       11 bytes
 Hardware stack levels used:    1
 This function calls:
		Nothing
 This function is called by:
		_SD_SendCmd
 This function uses a non-reentrant model


 *************** function _SPI1_ExchangeByte *****************
 Defined at:
		line 102 in file "mcc_generated_files/spi1.c"
 Parameters:    Size  Location     Type
  data            1    wreg     unsigned char 
 Auto vars:     Size  Location     Type
  data            1    0[COMRAM] unsigned char 
 Return value:  Size  Location     Type
                  1    wreg      unsigned char 
 Registers used:
		wreg, status,2
 Tracked objects:
		On entry : 
		On exit  : 
		Unchanged: 
 Data sizes:     COMRAM   BANK0   BANK1   BANK2   BANK3   BANK4   BANK5   BANK6   BANK7   BANK8   BANK9  BANK10  BANK11  BANK12  BANK13  BANK14  BANK15  BANK16  BANK17  BANK18  BANK19  BANK20  BANK21  BANK22  BANK23  BANK24  BANK25  BANK26  BANK27  BANK28  BANK29  BANK30  BANK31
      Params:         0       0       0       0       0       0       0       0       0       0       0       0       0       0       0       0       0       0       0       0       0       0       0       0       0       0       0       0       0       0       0       0       0
      Locals:         1       0       0       0       0       0       0       0       0       0       0       0       0       0       0       0       0       0       0       0       0       0       0       0       0       0       0       0       0       0       0       0       0
      Temps:          0       0       0       0       0       0       0       0       0       0       0       0       0       0       0       0       0       0       0       0       0       0       0       0       0       0       0       0       0       0       0       0       0
      Totals:         1       0       0       0       0       0       0       0       0       0       0       0       0       0       0       0       0       0       0       0       0       0       0       0       0       0       0       0       0       0       0       0       0
Total ram usage:        1 bytes
 Hardware stack levels used:    1
 This function calls:
		Nothing
 This function is called by:
		_SPI1_WriteBlock
		_SPI1_ReadBlock
		_SD_SendCmd
		_SD_SPI_AsyncWriteTasks
		_SD_SPI_AsyncReadTasks
		_SD_SPI_DelayMilliseconds
		_SD_SPI_MediaInitialize
 This function uses a non-reentrant model


 *************** function _SDFAST_open *****************
 Defined at:
		line 43 in file "mcc_generated_files/drivers/spi_master.c"
 Parameters:    Size  Location     Type
		None
 Auto vars:     Size  Location     Type
		None
 Return value:  Size  Location     Type
                  1    wreg      _Bool 
 Registers used:
		wreg, status,2, status,0, tblptrl, tblptrh, tblptru, prodl, prodh, cstack
 Tracked objects:
		On entry : 
		On exit  : 
		Unchanged: 
 Data sizes:     COMRAM   BANK0   BANK1   BANK2   BANK3   BANK4   BANK5   BANK6   BANK7   BANK8   BANK9  BANK10  BANK11  BANK12  BANK13  BANK14  BANK15  BANK16  BANK17  BANK18  BANK19  BANK20  BANK21  BANK22  BANK23  BANK24  BANK25  BANK26  BANK27  BANK28  BANK29  BANK30  BANK31
      Params:         0       0       0       0       0       0       0       0       0       0       0       0       0       0       0       0       0       0       0       0       0       0       0       0       0       0       0       0       0       0       0       0       0
      Locals:         0       0       0       0       0       0       0       0       0       0       0       0       0       0       0       0       0       0       0       0       0       0       0       0       0       0       0       0       0       0       0       0       0
      Temps:          0       0       0       0       0       0       0       0       0       0       0       0       0       0       0       0       0       0       0       0       0       0       0       0       0       0       0       0       0       0       0       0       0
      Totals:         0       0       0       0       0       0       0       0       0       0       0       0       0       0       0       0       0       0       0       0       0       0       0       0       0       0       0       0       0       0       0       0       0
Total ram usage:        0 bytes
 Hardware stack levels used:    1
 Hardware stack levels required when called:    1
 This function calls:
		_SPI1_Open
 This function is called by:
		_spi_master_open
		_SD_SPI_SectorWrite
		_SD_SPI_SectorRead
		_SD_SPI_MediaInitialize
 This function uses a non-reentrant model


 *************** function _SDSLOW_open *****************
 Defined at:
		line 47 in file "mcc_generated_files/drivers/spi_master.c"
 Parameters:    Size  Location     Type
		None
 Auto vars:     Size  Location     Type
		None
 Return value:  Size  Location     Type
                  1    wreg      _Bool 
 Registers used:
		wreg, status,2, status,0, tblptrl, tblptrh, tblptru, prodl, prodh, cstack
 Tracked objects:
		On entry : 
		On exit  : 
		Unchanged: 
 Data sizes:     COMRAM   BANK0   BANK1   BANK2   BANK3   BANK4   BANK5   BANK6   BANK7   BANK8   BANK9  BANK10  BANK11  BANK12  BANK13  BANK14  BANK15  BANK16  BANK17  BANK18  BANK19  BANK20  BANK21  BANK22  BANK23  BANK24  BANK25  BANK26  BANK27  BANK28  BANK29  BANK30  BANK31
      Params:         0       0       0       0       0       0       0       0       0       0       0       0       0       0       0       0       0       0       0       0       0       0       0       0       0       0       0       0       0       0       0       0       0
      Locals:         0       0       0       0       0       0       0       0       0       0       0       0       0       0       0       0       0       0       0       0       0       0       0       0       0       0       0       0       0       0       0       0       0
      Temps:          0       0       0       0       0       0       0       0       0       0       0       0       0       0       0       0       0       0       0       0       0       0       0       0       0       0       0       0       0       0       0       0       0
      Totals:         0       0       0       0       0       0       0       0       0       0       0       0       0       0       0       0       0       0       0       0       0       0       0       0       0       0       0       0       0       0       0       0       0
Total ram usage:        0 bytes
 Hardware stack levels used:    1
 Hardware stack levels required when called:    1
 This function calls:
		_SPI1_Open
 This function is called by:
		_spi_master_open
		_SD_SPI_SectorWrite
		_SD_SPI_SectorRead
		_SD_SPI_MediaInitialize
 This function uses a non-reentrant model


 *************** function _SPI1_Open *****************
 Defined at:
		line 81 in file "mcc_generated_files/spi1.c"
 Parameters:    Size  Location     Type
  spi1UniqueCo    1    wreg     enum E355
 Auto vars:     Size  Location     Type
  spi1UniqueCo    1    1[COMRAM] enum E355
 Return value:  Size  Location     Type
                  1    wreg      _Bool 
 Registers used:
		wreg, status,2, status,0, tblptrl, tblptrh, tblptru, prodl, prodh
 Tracked objects:
		On entry : 
		On exit  : 
		Unchanged: 
 Data sizes:     COMRAM   BANK0   BANK1   BANK2   BANK3   BANK4   BANK5   BANK6   BANK7   BANK8   BANK9  BANK10  BANK11  BANK12  BANK13  BANK14  BANK15  BANK16  BANK17  BANK18  BANK19  BANK20  BANK21  BANK22  BANK23  BANK24  BANK25  BANK26  BANK27  BANK28  BANK29  BANK30  BANK31
      Params:         0       0       0       0       0       0       0       0       0       0       0       0       0       0       0       0       0       0       0       0       0       0       0       0       0       0       0       0       0       0       0       0       0
      Locals:         1       0       0       0       0       0       0       0       0       0       0       0       0       0       0       0       0       0       0       0       0       0       0       0       0       0       0       0       0       0       0       0       0
      Temps:          1       0       0       0       0       0       0       0       0       0       0       0       0       0       0       0       0       0       0       0       0       0       0       0       0       0       0       0       0       0       0       0       0
      Totals:         2       0       0       0       0       0       0       0       0       0       0       0       0       0       0       0       0       0       0       0       0       0       0       0       0       0       0       0       0       0       0       0       0
Total ram usage:        2 bytes
 Hardware stack levels used:    1
 This function calls:
		Nothing
 This function is called by:
		_SDFAST_open
		_SDSLOW_open
 This function uses a non-reentrant model


 *************** function _mem_cmp *****************
 Defined at:
		line 671 in file "mcc_generated_files/fatfs/ff.c"
 Parameters:    Size  Location     Type
  dst             2    0[COMRAM] PTR const void 
		 -> drive.win(512), drive(563), NULL(0), 
  src             2    2[COMRAM] PTR const void 
		 -> dj.fn(12), f_chdir@dj(40), dj.fn(12), f_open@dj(40), 
		 -> STR_6(6), STR_4(4), 
  cnt             2    4[COMRAM] unsigned int 
 Auto vars:     Size  Location     Type
  r               2   12[COMRAM] int 
  s               2   10[COMRAM] PTR const unsigned char 
		 -> dj.fn(12), f_chdir@dj(40), dj.fn(12), f_open@dj(40), 
		 -> STR_6(6), STR_4(4), 
  d               2    8[COMRAM] PTR const unsigned char 
		 -> drive.win(512), drive(563), NULL(0), 
 Return value:  Size  Location     Type
                  2    0[COMRAM] int 
 Registers used:
		wreg, fsr0l, fsr0h, fsr2l, fsr2h, status,2, status,0, tblptrl, tblptrh, tblptru
 Tracked objects:
		On entry : 
		On exit  : 
		Unchanged: 
 Data sizes:     COMRAM   BANK0   BANK1   BANK2   BANK3   BANK4   BANK5   BANK6   BANK7   BANK8   BANK9  BANK10  BANK11  BANK12  BANK13  BANK14  BANK15  BANK16  BANK17  BANK18  BANK19  BANK20  BANK21  BANK22  BANK23  BANK24  BANK25  BANK26  BANK27  BANK28  BANK29  BANK30  BANK31
      Params:         6       0       0       0       0       0       0       0       0       0       0       0       0       0       0       0       0       0       0       0       0       0       0       0       0       0       0       0       0       0       0       0       0
      Locals:         6       0       0       0       0       0       0       0       0       0       0       0       0       0       0       0       0       0       0       0       0       0       0       0       0       0       0       0       0       0       0       0       0
      Temps:          2       0       0       0       0       0       0       0       0       0       0       0       0       0       0       0       0       0       0       0       0       0       0       0       0       0       0       0       0       0       0       0       0
      Totals:        14       0       0       0       0       0       0       0       0       0       0       0       0       0       0       0       0       0       0       0       0       0       0       0       0       0       0       0       0       0       0       0       0
Total ram usage:       14 bytes
 Hardware stack levels used:    1
 This function calls:
		Nothing
 This function is called by:
		_dir_find
		_check_fs
 This function uses a non-reentrant model


 *************** function _ld_word *****************
 Defined at:
		line 572 in file "mcc_generated_files/fatfs/ff.c"
 Parameters:    Size  Location     Type
  ptr             2    0[COMRAM] PTR const unsigned char 
		 -> drive.win(512), drive(563), NULL(0), 
 Auto vars:     Size  Location     Type
  rv              2    5[COMRAM] unsigned short 
 Return value:  Size  Location     Type
                  2    0[COMRAM] unsigned short 
 Registers used:
		wreg, fsr2l, fsr2h, status,2, status,0
 Tracked objects:
		On entry : 
		On exit  : 
		Unchanged: 
 Data sizes:     COMRAM   BANK0   BANK1   BANK2   BANK3   BANK4   BANK5   BANK6   BANK7   BANK8   BANK9  BANK10  BANK11  BANK12  BANK13  BANK14  BANK15  BANK16  BANK17  BANK18  BANK19  BANK20  BANK21  BANK22  BANK23  BANK24  BANK25  BANK26  BANK27  BANK28  BANK29  BANK30  BANK31
      Params:         2       0       0       0       0       0       0       0       0       0       0       0       0       0       0       0       0       0       0       0       0       0       0       0       0       0       0       0       0       0       0       0       0
      Locals:         2       0       0       0       0       0       0       0       0       0       0       0       0       0       0       0       0       0       0       0       0       0       0       0       0       0       0       0       0       0       0       0       0
      Temps:          3       0       0       0       0       0       0       0       0       0       0       0       0       0       0       0       0       0       0       0       0       0       0       0       0       0       0       0       0       0       0       0       0
      Totals:         7       0       0       0       0       0       0       0       0       0       0       0       0       0       0       0       0       0       0       0       0       0       0       0       0       0       0       0       0       0       0       0       0
Total ram usage:        7 bytes
 Hardware stack levels used:    1
 This function calls:
		Nothing
 This function is called by:
		_get_fat
		_ld_clust
		_check_fs
		_find_volume
 This function uses a non-reentrant model


 *************** function ___lldiv *****************
 Defined at:
		line 7 in file "C:\Program Files\Microchip\xc8\v2.31\pic\sources\c99\common\__lldiv.c"
 Parameters:    Size  Location     Type
  dividend        4    0[COMRAM] unsigned long 
  divisor         4    4[COMRAM] unsigned long 
 Auto vars:     Size  Location     Type
  quotient        4    8[COMRAM] unsigned long 
  counter         1   12[COMRAM] unsigned char 
 Return value:  Size  Location     Type
                  4    0[COMRAM] unsigned long 
 Registers used:
		wreg, status,2, status,0
 Tracked objects:
		On entry : 
		On exit  : 
		Unchanged: 
 Data sizes:     COMRAM   BANK0   BANK1   BANK2   BANK3   BANK4   BANK5   BANK6   BANK7   BANK8   BANK9  BANK10  BANK11  BANK12  BANK13  BANK14  BANK15  BANK16  BANK17  BANK18  BANK19  BANK20  BANK21  BANK22  BANK23  BANK24  BANK25  BANK26  BANK27  BANK28  BANK29  BANK30  BANK31
      Params:         8       0       0       0       0       0       0       0       0       0       0       0       0       0       0       0       0       0       0       0       0       0       0       0       0       0       0       0       0       0       0       0       0
      Locals:         5       0       0       0       0       0       0       0       0       0       0       0       0       0       0       0       0       0       0       0       0       0       0       0       0       0       0       0       0       0       0       0       0
      Temps:          0       0       0       0       0       0       0       0       0       0       0       0       0       0       0       0       0       0       0       0       0       0       0       0       0       0       0       0       0       0       0       0       0
      Totals:        13       0       0       0       0       0       0       0       0       0       0       0       0       0       0       0       0       0       0       0       0       0       0       0       0       0       0       0       0       0       0       0       0
Total ram usage:       13 bytes
 Hardware stack levels used:    1
 This function calls:
		Nothing
 This function is called by:
		_find_volume
 This function uses a non-reentrant model


 *************** function _Error_Check *****************
 Defined at:
		line 108 in file "main.c"
 Parameters:    Size  Location     Type
		None
 Auto vars:     Size  Location     Type
  messageInt      2   27[COMRAM] int 
 Return value:  Size  Location     Type
                  1    wreg      void 
 Registers used:
		wreg, fsr2l, fsr2h, status,2, status,0, tblptrl, tblptrh, tblptru, prodl, prodh, cstack
 Tracked objects:
		On entry : 
		On exit  : 
		Unchanged: 
 Data sizes:     COMRAM   BANK0   BANK1   BANK2   BANK3   BANK4   BANK5   BANK6   BANK7   BANK8   BANK9  BANK10  BANK11  BANK12  BANK13  BANK14  BANK15  BANK16  BANK17  BANK18  BANK19  BANK20  BANK21  BANK22  BANK23  BANK24  BANK25  BANK26  BANK27  BANK28  BANK29  BANK30  BANK31
      Params:         0       0       0       0       0       0       0       0       0       0       0       0       0       0       0       0       0       0       0       0       0       0       0       0       0       0       0       0       0       0       0       0       0
      Locals:         2       0       0       0       0       0       0       0       0       0       0       0       0       0       0       0       0       0       0       0       0       0       0       0       0       0       0       0       0       0       0       0       0
      Temps:          5       0       0       0       0       0       0       0       0       0       0       0       0       0       0       0       0       0       0       0       0       0       0       0       0       0       0       0       0       0       0       0       0
      Totals:         7       0       0       0       0       0       0       0       0       0       0       0       0       0       0       0       0       0       0       0       0       0       0       0       0       0       0       0       0       0       0       0       0
Total ram usage:        7 bytes
 Hardware stack levels used:    1
 Hardware stack levels required when called:    2
 This function calls:
		_Display_Character
		_atoi
 This function is called by:
		_UART_Message
 This function uses a non-reentrant model


 *************** function _atoi *****************
 Defined at:
		line 4 in file "C:\Program Files\Microchip\xc8\v2.31\pic\sources\c99\common\atoi.c"
 Parameters:    Size  Location     Type
  s               2    7[COMRAM] PTR const unsigned char 
		 -> messageStr(12), 
 Auto vars:     Size  Location     Type
  n               2   20[COMRAM] int 
  neg             2   13[COMRAM] int 
 Return value:  Size  Location     Type
                  2    7[COMRAM] int 
 Registers used:
		wreg, fsr2l, fsr2h, status,2, status,0, prodl, prodh, cstack
 Tracked objects:
		On entry : 
		On exit  : 
		Unchanged: 
 Data sizes:     COMRAM   BANK0   BANK1   BANK2   BANK3   BANK4   BANK5   BANK6   BANK7   BANK8   BANK9  BANK10  BANK11  BANK12  BANK13  BANK14  BANK15  BANK16  BANK17  BANK18  BANK19  BANK20  BANK21  BANK22  BANK23  BANK24  BANK25  BANK26  BANK27  BANK28  BANK29  BANK30  BANK31
      Params:         2       0       0       0       0       0       0       0       0       0       0       0       0       0       0       0       0       0       0       0       0       0       0       0       0       0       0       0       0       0       0       0       0
      Locals:         9       0       0       0       0       0       0       0       0       0       0       0       0       0       0       0       0       0       0       0       0       0       0       0       0       0       0       0       0       0       0       0       0
      Temps:          4       0       0       0       0       0       0       0       0       0       0       0       0       0       0       0       0       0       0       0       0       0       0       0       0       0       0       0       0       0       0       0       0
      Totals:        15       0       0       0       0       0       0       0       0       0       0       0       0       0       0       0       0       0       0       0       0       0       0       0       0       0       0       0       0       0       0       0       0
Total ram usage:       15 bytes
 Hardware stack levels used:    1
 Hardware stack levels required when called:    1
 This function calls:
		___wmul
		_isdigit
		_isspace
 This function is called by:
		_Error_Check
 This function uses a non-reentrant model


 *************** function _isspace *****************
 Defined at:
		line 5 in file "C:\Program Files\Microchip\xc8\v2.31\pic\sources\c99\common\isspace.c"
 Parameters:    Size  Location     Type
  c               2    0[COMRAM] int 
 Auto vars:     Size  Location     Type
		None
 Return value:  Size  Location     Type
                  2    0[COMRAM] int 
 Registers used:
		wreg, status,2, status,0
 Tracked objects:
		On entry : 
		On exit  : 
		Unchanged: 
 Data sizes:     COMRAM   BANK0   BANK1   BANK2   BANK3   BANK4   BANK5   BANK6   BANK7   BANK8   BANK9  BANK10  BANK11  BANK12  BANK13  BANK14  BANK15  BANK16  BANK17  BANK18  BANK19  BANK20  BANK21  BANK22  BANK23  BANK24  BANK25  BANK26  BANK27  BANK28  BANK29  BANK30  BANK31
      Params:         2       0       0       0       0       0       0       0       0       0       0       0       0       0       0       0       0       0       0       0       0       0       0       0       0       0       0       0       0       0       0       0       0
      Locals:         1       0       0       0       0       0       0       0       0       0       0       0       0       0       0       0       0       0       0       0       0       0       0       0       0       0       0       0       0       0       0       0       0
      Temps:          4       0       0       0       0       0       0       0       0       0       0       0       0       0       0       0       0       0       0       0       0       0       0       0       0       0       0       0       0       0       0       0       0
      Totals:         7       0       0       0       0       0       0       0       0       0       0       0       0       0       0       0       0       0       0       0       0       0       0       0       0       0       0       0       0       0       0       0       0
Total ram usage:        7 bytes
 Hardware stack levels used:    1
 This function calls:
		Nothing
 This function is called by:
		_atoi
 This function uses a non-reentrant model


 *************** function _isdigit *****************
 Defined at:
		line 5 in file "C:\Program Files\Microchip\xc8\v2.31\pic\sources\c99\common\isdigit.c"
 Parameters:    Size  Location     Type
  c               2    0[COMRAM] int 
 Auto vars:     Size  Location     Type
		None
 Return value:  Size  Location     Type
                  2    0[COMRAM] int 
 Registers used:
		wreg, status,2, status,0
 Tracked objects:
		On entry : 
		On exit  : 
		Unchanged: 
 Data sizes:     COMRAM   BANK0   BANK1   BANK2   BANK3   BANK4   BANK5   BANK6   BANK7   BANK8   BANK9  BANK10  BANK11  BANK12  BANK13  BANK14  BANK15  BANK16  BANK17  BANK18  BANK19  BANK20  BANK21  BANK22  BANK23  BANK24  BANK25  BANK26  BANK27  BANK28  BANK29  BANK30  BANK31
      Params:         2       0       0       0       0       0       0       0       0       0       0       0       0       0       0       0       0       0       0       0       0       0       0       0       0       0       0       0       0       0       0       0       0
      Locals:         0       0       0       0       0       0       0       0       0       0       0       0       0       0       0       0       0       0       0       0       0       0       0       0       0       0       0       0       0       0       0       0       0
      Temps:          4       0       0       0       0       0       0       0       0       0       0       0       0       0       0       0       0       0       0       0       0       0       0       0       0       0       0       0       0       0       0       0       0
      Totals:         6       0       0       0       0       0       0       0       0       0       0       0       0       0       0       0       0       0       0       0       0       0       0       0       0       0       0       0       0       0       0       0       0
Total ram usage:        6 bytes
 Hardware stack levels used:    1
 This function calls:
		Nothing
 This function is called by:
		_atoi
 This function uses a non-reentrant model


 *************** function ___wmul *****************
 Defined at:
		line 15 in file "C:\Program Files\Microchip\xc8\v2.31\pic\sources\c99\common\Umul16.c"
 Parameters:    Size  Location     Type
  multiplier      2    0[COMRAM] unsigned int 
  multiplicand    2    2[COMRAM] unsigned int 
 Auto vars:     Size  Location     Type
  product         2    4[COMRAM] unsigned int 
 Return value:  Size  Location     Type
                  2    0[COMRAM] unsigned int 
 Registers used:
		wreg, status,2, status,0, prodl, prodh
 Tracked objects:
		On entry : 
		On exit  : 
		Unchanged: 
 Data sizes:     COMRAM   BANK0   BANK1   BANK2   BANK3   BANK4   BANK5   BANK6   BANK7   BANK8   BANK9  BANK10  BANK11  BANK12  BANK13  BANK14  BANK15  BANK16  BANK17  BANK18  BANK19  BANK20  BANK21  BANK22  BANK23  BANK24  BANK25  BANK26  BANK27  BANK28  BANK29  BANK30  BANK31
      Params:         4       0       0       0       0       0       0       0       0       0       0       0       0       0       0       0       0       0       0       0       0       0       0       0       0       0       0       0       0       0       0       0       0
      Locals:         2       0       0       0       0       0       0       0       0       0       0       0       0       0       0       0       0       0       0       0       0       0       0       0       0       0       0       0       0       0       0       0       0
      Temps:          0       0       0       0       0       0       0       0       0       0       0       0       0       0       0       0       0       0       0       0       0       0       0       0       0       0       0       0       0       0       0       0       0
      Totals:         6       0       0       0       0       0       0       0       0       0       0       0       0       0       0       0       0       0       0       0       0       0       0       0       0       0       0       0       0       0       0       0       0
Total ram usage:        6 bytes
 Hardware stack levels used:    1
 This function calls:
		Nothing
 This function is called by:
		_atoi
 This function uses a non-reentrant model


 *************** function _UART_Line *****************
 Defined at:
		line 140 in file "main.c"
 Parameters:    Size  Location     Type
		None
 Auto vars:     Size  Location     Type
  line            1    1[COMRAM] unsigned char 
 Return value:  Size  Location     Type
                  1    wreg      void 
 Registers used:
		wreg, status,2, status,0, cstack
 Tracked objects:
		On entry : 
		On exit  : 
		Unchanged: 
 Data sizes:     COMRAM   BANK0   BANK1   BANK2   BANK3   BANK4   BANK5   BANK6   BANK7   BANK8   BANK9  BANK10  BANK11  BANK12  BANK13  BANK14  BANK15  BANK16  BANK17  BANK18  BANK19  BANK20  BANK21  BANK22  BANK23  BANK24  BANK25  BANK26  BANK27  BANK28  BANK29  BANK30  BANK31
      Params:         0       0       0       0       0       0       0       0       0       0       0       0       0       0       0       0       0       0       0       0       0       0       0       0       0       0       0       0       0       0       0       0       0
      Locals:         1       0       0       0       0       0       0       0       0       0       0       0       0       0       0       0       0       0       0       0       0       0       0       0       0       0       0       0       0       0       0       0       0
      Temps:          0       0       0       0       0       0       0       0       0       0       0       0       0       0       0       0       0       0       0       0       0       0       0       0       0       0       0       0       0       0       0       0       0
      Totals:         1       0       0       0       0       0       0       0       0       0       0       0       0       0       0       0       0       0       0       0       0       0       0       0       0       0       0       0       0       0       0       0       0
Total ram usage:        1 bytes
 Hardware stack levels used:    1
 Hardware stack levels required when called:    1
 This function calls:
		_Command_Write
		_UART1_Read
 This function is called by:
		_UART_Command_Mapper
 This function uses a non-reentrant model


 *************** function _UART_Cursor *****************
 Defined at:
		line 147 in file "main.c"
 Parameters:    Size  Location     Type
		None
 Auto vars:     Size  Location     Type
  position        1    1[COMRAM] unsigned char 
 Return value:  Size  Location     Type
                  1    wreg      void 
 Registers used:
		wreg, status,2, status,0, cstack
 Tracked objects:
		On entry : 
		On exit  : 
		Unchanged: 
 Data sizes:     COMRAM   BANK0   BANK1   BANK2   BANK3   BANK4   BANK5   BANK6   BANK7   BANK8   BANK9  BANK10  BANK11  BANK12  BANK13  BANK14  BANK15  BANK16  BANK17  BANK18  BANK19  BANK20  BANK21  BANK22  BANK23  BANK24  BANK25  BANK26  BANK27  BANK28  BANK29  BANK30  BANK31
      Params:         0       0       0       0       0       0       0       0       0       0       0       0       0       0       0       0       0       0       0       0       0       0       0       0       0       0       0       0       0       0       0       0       0
      Locals:         1       0       0       0       0       0       0       0       0       0       0       0       0       0       0       0       0       0       0       0       0       0       0       0       0       0       0       0       0       0       0       0       0
      Temps:          0       0       0       0       0       0       0       0       0       0       0       0       0       0       0       0       0       0       0       0       0       0       0       0       0       0       0       0       0       0       0       0       0
      Totals:         1       0       0       0       0       0       0       0       0       0       0       0       0       0       0       0       0       0       0       0       0       0       0       0       0       0       0       0       0       0       0       0       0
Total ram usage:        1 bytes
 Hardware stack levels used:    1
 Hardware stack levels required when called:    1
 This function calls:
		_Command_Write
		_UART1_Read
 This function is called by:
		_UART_Command_Mapper
 This function uses a non-reentrant model


 *************** function _UART_Clear_Line *****************
 Defined at:
		line 166 in file "main.c"
 Parameters:    Size  Location     Type
		None
 Auto vars:     Size  Location     Type
		None
 Return value:  Size  Location     Type
                  1    wreg      void 
 Registers used:
		wreg, fsr0l, fsr0h, status,2, status,0, tblptrl, tblptrh, tblptru, prodl, prodh, cstack
 Tracked objects:
		On entry : 
		On exit  : 
		Unchanged: 
 Data sizes:     COMRAM   BANK0   BANK1   BANK2   BANK3   BANK4   BANK5   BANK6   BANK7   BANK8   BANK9  BANK10  BANK11  BANK12  BANK13  BANK14  BANK15  BANK16  BANK17  BANK18  BANK19  BANK20  BANK21  BANK22  BANK23  BANK24  BANK25  BANK26  BANK27  BANK28  BANK29  BANK30  BANK31
      Params:         0       0       0       0       0       0       0       0       0       0       0       0       0       0       0       0       0       0       0       0       0       0       0       0       0       0       0       0       0       0       0       0       0
      Locals:         0       0       0       0       0       0       0       0       0       0       0       0       0       0       0       0       0       0       0       0       0       0       0       0       0       0       0       0       0       0       0       0       0
      Temps:          0       0       0       0       0       0       0       0       0       0       0       0       0       0       0       0       0       0       0       0       0       0       0       0       0       0       0       0       0       0       0       0       0
      Totals:         0       0       0       0       0       0       0       0       0       0       0       0       0       0       0       0       0       0       0       0       0       0       0       0       0       0       0       0       0       0       0       0       0
Total ram usage:        0 bytes
 Hardware stack levels used:    1
 Hardware stack levels required when called:    3
 This function calls:
		_Command_Write
		_Display_Message
 This function is called by:
		_UART_Command_Mapper
 This function uses a non-reentrant model


 *************** function _UART_Check_Comm_Start *****************
 Defined at:
		line 240 in file "main.c"
 Parameters:    Size  Location     Type
		None
 Auto vars:     Size  Location     Type
  message         1    0[COMRAM] unsigned char 
 Return value:  Size  Location     Type
                  1    wreg      void 
 Registers used:
		wreg, status,2, status,0, cstack
 Tracked objects:
		On entry : 
		On exit  : 
		Unchanged: 
 Data sizes:     COMRAM   BANK0   BANK1   BANK2   BANK3   BANK4   BANK5   BANK6   BANK7   BANK8   BANK9  BANK10  BANK11  BANK12  BANK13  BANK14  BANK15  BANK16  BANK17  BANK18  BANK19  BANK20  BANK21  BANK22  BANK23  BANK24  BANK25  BANK26  BANK27  BANK28  BANK29  BANK30  BANK31
      Params:         0       0       0       0       0       0       0       0       0       0       0       0       0       0       0       0       0       0       0       0       0       0       0       0       0       0       0       0       0       0       0       0       0
      Locals:         1       0       0       0       0       0       0       0       0       0       0       0       0       0       0       0       0       0       0       0       0       0       0       0       0       0       0       0       0       0       0       0       0
      Temps:          0       0       0       0       0       0       0       0       0       0       0       0       0       0       0       0       0       0       0       0       0       0       0       0       0       0       0       0       0       0       0       0       0
      Totals:         1       0       0       0       0       0       0       0       0       0       0       0       0       0       0       0       0       0       0       0       0       0       0       0       0       0       0       0       0       0       0       0       0
Total ram usage:        1 bytes
 Hardware stack levels used:    1
 Hardware stack levels required when called:    1
 This function calls:
		_UART1_Read
 This function is called by:
		_UART_Start
 This function uses a non-reentrant model


 *************** function _UART_Settings *****************
 Defined at:
		line 268 in file "main.c"
 Parameters:    Size  Location     Type
		None
 Auto vars:     Size  Location     Type
		None
 Return value:  Size  Location     Type
                  1    wreg      void 
 Registers used:
		wreg, fsr0l, fsr0h, status,2, status,0, tblptrl, tblptrh, tblptru, prodl, prodh, cstack
 Tracked objects:
		On entry : 
		On exit  : 
		Unchanged: 
 Data sizes:     COMRAM   BANK0   BANK1   BANK2   BANK3   BANK4   BANK5   BANK6   BANK7   BANK8   BANK9  BANK10  BANK11  BANK12  BANK13  BANK14  BANK15  BANK16  BANK17  BANK18  BANK19  BANK20  BANK21  BANK22  BANK23  BANK24  BANK25  BANK26  BANK27  BANK28  BANK29  BANK30  BANK31
      Params:         0       0       0       0       0       0       0       0       0       0       0       0       0       0       0       0       0       0       0       0       0       0       0       0       0       0       0       0       0       0       0       0       0
      Locals:         0       0       0       0       0       0       0       0       0       0       0       0       0       0       0       0       0       0       0       0       0       0       0       0       0       0       0       0       0       0       0       0       0
      Temps:          0       0       0       0       0       0       0       0       0       0       0       0       0       0       0       0       0       0       0       0       0       0       0       0       0       0       0       0       0       0       0       0       0
      Totals:         0       0       0       0       0       0       0       0       0       0       0       0       0       0       0       0       0       0       0       0       0       0       0       0       0       0       0       0       0       0       0       0       0
Total ram usage:        0 bytes
 Hardware stack levels used:    1
 Hardware stack levels required when called:    3
 This function calls:
		_Command_Write
		_Cursor_drawing
		_Display_Message
		_GLCD_Clear
		_Select_Page
 This function is called by:
		_Menu_Logic
 This function uses a non-reentrant model


 *************** function _Transmission_Settings *****************
 Defined at:
		line 593 in file "main.c"
 Parameters:    Size  Location     Type
		None
 Auto vars:     Size  Location     Type
  SDloggingCha    1   11[BANK0 ] unsigned char [1]
  ContinuousCh    1   10[BANK0 ] unsigned char [1]
 Return value:  Size  Location     Type
                  1    wreg      void 
 Registers used:
		wreg, fsr0l, fsr0h, fsr1l, fsr1h, fsr2l, fsr2h, status,2, status,0, tblptrl, tblptrh, tblptru, prodl, prodh, cstack
 Tracked objects:
		On entry : 
		On exit  : 
		Unchanged: 
 Data sizes:     COMRAM   BANK0   BANK1   BANK2   BANK3   BANK4   BANK5   BANK6   BANK7   BANK8   BANK9  BANK10  BANK11  BANK12  BANK13  BANK14  BANK15  BANK16  BANK17  BANK18  BANK19  BANK20  BANK21  BANK22  BANK23  BANK24  BANK25  BANK26  BANK27  BANK28  BANK29  BANK30  BANK31
      Params:         0       0       0       0       0       0       0       0       0       0       0       0       0       0       0       0       0       0       0       0       0       0       0       0       0       0       0       0       0       0       0       0       0
      Locals:         0       2       0       0       0       0       0       0       0       0       0       0       0       0       0       0       0       0       0       0       0       0       0       0       0       0       0       0       0       0       0       0       0
      Temps:          0       0       0       0       0       0       0       0       0       0       0       0       0       0       0       0       0       0       0       0       0       0       0       0       0       0       0       0       0       0       0       0       0
      Totals:         0       2       0       0       0       0       0       0       0       0       0       0       0       0       0       0       0       0       0       0       0       0       0       0       0       0       0       0       0       0       0       0       0
Total ram usage:        2 bytes
 Hardware stack levels used:    1
 Hardware stack levels required when called:    8
 This function calls:
		_Command_Write
		_Cursor_drawing
		_Display_Character
		_Display_Message
		_GLCD_Clear
		_Select_Page
		_sprintf
 This function is called by:
		_Menu_Logic
 This function uses a non-reentrant model


 *************** function _Toggle_Select *****************
 Defined at:
		line 331 in file "main.c"
 Parameters:    Size  Location     Type
  number          2   10[BANK0 ] int 
  line            1   12[BANK0 ] unsigned char 
 Auto vars:     Size  Location     Type
  Char            1   15[BANK0 ] unsigned char [1]
 Return value:  Size  Location     Type
                  2   10[BANK0 ] int 
 Registers used:
		wreg, fsr0l, fsr0h, fsr1l, fsr1h, fsr2l, fsr2h, status,2, status,0, tblptrl, tblptrh, tblptru, prodl, prodh, cstack
 Tracked objects:
		On entry : 
		On exit  : 
		Unchanged: 
 Data sizes:     COMRAM   BANK0   BANK1   BANK2   BANK3   BANK4   BANK5   BANK6   BANK7   BANK8   BANK9  BANK10  BANK11  BANK12  BANK13  BANK14  BANK15  BANK16  BANK17  BANK18  BANK19  BANK20  BANK21  BANK22  BANK23  BANK24  BANK25  BANK26  BANK27  BANK28  BANK29  BANK30  BANK31
      Params:         0       3       0       0       0       0       0       0       0       0       0       0       0       0       0       0       0       0       0       0       0       0       0       0       0       0       0       0       0       0       0       0       0
      Locals:         0       1       0       0       0       0       0       0       0       0       0       0       0       0       0       0       0       0       0       0       0       0       0       0       0       0       0       0       0       0       0       0       0
      Temps:          0       2       0       0       0       0       0       0       0       0       0       0       0       0       0       0       0       0       0       0       0       0       0       0       0       0       0       0       0       0       0       0       0
      Totals:         0       6       0       0       0       0       0       0       0       0       0       0       0       0       0       0       0       0       0       0       0       0       0       0       0       0       0       0       0       0       0       0       0
Total ram usage:        6 bytes
 Hardware stack levels used:    1
 Hardware stack levels required when called:    8
 This function calls:
		_Command_Write
		_Display_Message
		_Select_Page
		_sprintf
 This function is called by:
		_Menu_Logic
 This function uses a non-reentrant model


 *************** function _Settings_Menu *****************
 Defined at:
		line 82 in file "main.c"
 Parameters:    Size  Location     Type
		None
 Auto vars:     Size  Location     Type
		None
 Return value:  Size  Location     Type
                  1    wreg      void 
 Registers used:
		wreg, fsr0l, fsr0h, status,2, status,0, tblptrl, tblptrh, tblptru, prodl, prodh, cstack
 Tracked objects:
		On entry : 
		On exit  : 
		Unchanged: 
 Data sizes:     COMRAM   BANK0   BANK1   BANK2   BANK3   BANK4   BANK5   BANK6   BANK7   BANK8   BANK9  BANK10  BANK11  BANK12  BANK13  BANK14  BANK15  BANK16  BANK17  BANK18  BANK19  BANK20  BANK21  BANK22  BANK23  BANK24  BANK25  BANK26  BANK27  BANK28  BANK29  BANK30  BANK31
      Params:         0       0       0       0       0       0       0       0       0       0       0       0       0       0       0       0       0       0       0       0       0       0       0       0       0       0       0       0       0       0       0       0       0
      Locals:         0       0       0       0       0       0       0       0       0       0       0       0       0       0       0       0       0       0       0       0       0       0       0       0       0       0       0       0       0       0       0       0       0
      Temps:          0       0       0       0       0       0       0       0       0       0       0       0       0       0       0       0       0       0       0       0       0       0       0       0       0       0       0       0       0       0       0       0       0
      Totals:         0       0       0       0       0       0       0       0       0       0       0       0       0       0       0       0       0       0       0       0       0       0       0       0       0       0       0       0       0       0       0       0       0
Total ram usage:        0 bytes
 Hardware stack levels used:    1
 Hardware stack levels required when called:    3
 This function calls:
		_Command_Write
		_Cursor_drawing
		_Display_Message
		_GLCD_Clear
		_Select_Page
 This function is called by:
		_Menu_Logic
 This function uses a non-reentrant model


 *************** function _Minimum_Error_Select *****************
 Defined at:
		line 485 in file "main.c"
 Parameters:    Size  Location     Type
		None
 Auto vars:     Size  Location     Type
		None
 Return value:  Size  Location     Type
                  1    wreg      void 
 Registers used:
		wreg, fsr0l, fsr0h, fsr1l, fsr1h, fsr2l, fsr2h, status,2, status,0, tblptrl, tblptrh, tblptru, prodl, prodh, cstack
 Tracked objects:
		On entry : 
		On exit  : 
		Unchanged: 
 Data sizes:     COMRAM   BANK0   BANK1   BANK2   BANK3   BANK4   BANK5   BANK6   BANK7   BANK8   BANK9  BANK10  BANK11  BANK12  BANK13  BANK14  BANK15  BANK16  BANK17  BANK18  BANK19  BANK20  BANK21  BANK22  BANK23  BANK24  BANK25  BANK26  BANK27  BANK28  BANK29  BANK30  BANK31
      Params:         0       0       0       0       0       0       0       0       0       0       0       0       0       0       0       0       0       0       0       0       0       0       0       0       0       0       0       0       0       0       0       0       0
      Locals:         0       0       0       0       0       0       0       0       0       0       0       0       0       0       0       0       0       0       0       0       0       0       0       0       0       0       0       0       0       0       0       0       0
      Temps:          0       0       0       0       0       0       0       0       0       0       0       0       0       0       0       0       0       0       0       0       0       0       0       0       0       0       0       0       0       0       0       0       0
      Totals:         0       0       0       0       0       0       0       0       0       0       0       0       0       0       0       0       0       0       0       0       0       0       0       0       0       0       0       0       0       0       0       0       0
Total ram usage:        0 bytes
 Hardware stack levels used:    1
 Hardware stack levels required when called:   10
 This function calls:
		_Command_Write
		_Display_Message
		_GLCD_Clear
		_Number_Select
		_Select_Page
		_sprintf
 This function is called by:
		_Menu_Logic
 This function uses a non-reentrant model


 *************** function _Maximum_Error_Select *****************
 Defined at:
		line 461 in file "main.c"
 Parameters:    Size  Location     Type
		None
 Auto vars:     Size  Location     Type
		None
 Return value:  Size  Location     Type
                  1    wreg      void 
 Registers used:
		wreg, fsr0l, fsr0h, fsr1l, fsr1h, fsr2l, fsr2h, status,2, status,0, tblptrl, tblptrh, tblptru, prodl, prodh, cstack
 Tracked objects:
		On entry : 
		On exit  : 
		Unchanged: 
 Data sizes:     COMRAM   BANK0   BANK1   BANK2   BANK3   BANK4   BANK5   BANK6   BANK7   BANK8   BANK9  BANK10  BANK11  BANK12  BANK13  BANK14  BANK15  BANK16  BANK17  BANK18  BANK19  BANK20  BANK21  BANK22  BANK23  BANK24  BANK25  BANK26  BANK27  BANK28  BANK29  BANK30  BANK31
      Params:         0       0       0       0       0       0       0       0       0       0       0       0       0       0       0       0       0       0       0       0       0       0       0       0       0       0       0       0       0       0       0       0       0
      Locals:         0       0       0       0       0       0       0       0       0       0       0       0       0       0       0       0       0       0       0       0       0       0       0       0       0       0       0       0       0       0       0       0       0
      Temps:          0       0       0       0       0       0       0       0       0       0       0       0       0       0       0       0       0       0       0       0       0       0       0       0       0       0       0       0       0       0       0       0       0
      Totals:         0       0       0       0       0       0       0       0       0       0       0       0       0       0       0       0       0       0       0       0       0       0       0       0       0       0       0       0       0       0       0       0       0
Total ram usage:        0 bytes
 Hardware stack levels used:    1
 Hardware stack levels required when called:   10
 This function calls:
		_Command_Write
		_Display_Message
		_GLCD_Clear
		_Number_Select
		_Select_Page
		_sprintf
 This function is called by:
		_Menu_Logic
 This function uses a non-reentrant model


 *************** function _Error_select_range *****************
 Defined at:
		line 509 in file "main.c"
 Parameters:    Size  Location     Type
		None
 Auto vars:     Size  Location     Type
		None
 Return value:  Size  Location     Type
                  1    wreg      void 
 Registers used:
		wreg, fsr0l, fsr0h, status,2, status,0, tblptrl, tblptrh, tblptru, prodl, prodh, cstack
 Tracked objects:
		On entry : 
		On exit  : 
		Unchanged: 
 Data sizes:     COMRAM   BANK0   BANK1   BANK2   BANK3   BANK4   BANK5   BANK6   BANK7   BANK8   BANK9  BANK10  BANK11  BANK12  BANK13  BANK14  BANK15  BANK16  BANK17  BANK18  BANK19  BANK20  BANK21  BANK22  BANK23  BANK24  BANK25  BANK26  BANK27  BANK28  BANK29  BANK30  BANK31
      Params:         0       0       0       0       0       0       0       0       0       0       0       0       0       0       0       0       0       0       0       0       0       0       0       0       0       0       0       0       0       0       0       0       0
      Locals:         0       0       0       0       0       0       0       0       0       0       0       0       0       0       0       0       0       0       0       0       0       0       0       0       0       0       0       0       0       0       0       0       0
      Temps:          0       0       0       0       0       0       0       0       0       0       0       0       0       0       0       0       0       0       0       0       0       0       0       0       0       0       0       0       0       0       0       0       0
      Totals:         0       0       0       0       0       0       0       0       0       0       0       0       0       0       0       0       0       0       0       0       0       0       0       0       0       0       0       0       0       0       0       0       0
Total ram usage:        0 bytes
 Hardware stack levels used:    1
 Hardware stack levels required when called:    3
 This function calls:
		_Command_Write
		_Cursor_drawing
		_Display_Message
		_GLCD_Clear
		_Select_Page
 This function is called by:
		_Menu_Logic
 This function uses a non-reentrant model


 *************** function _Error_Settings *****************
 Defined at:
		line 534 in file "main.c"
 Parameters:    Size  Location     Type
		None
 Auto vars:     Size  Location     Type
  errorcheckCh    1   10[BANK0 ] unsigned char [1]
 Return value:  Size  Location     Type
                  1    wreg      void 
 Registers used:
		wreg, fsr0l, fsr0h, fsr1l, fsr1h, fsr2l, fsr2h, status,2, status,0, tblptrl, tblptrh, tblptru, prodl, prodh, cstack
 Tracked objects:
		On entry : 
		On exit  : 
		Unchanged: 
 Data sizes:     COMRAM   BANK0   BANK1   BANK2   BANK3   BANK4   BANK5   BANK6   BANK7   BANK8   BANK9  BANK10  BANK11  BANK12  BANK13  BANK14  BANK15  BANK16  BANK17  BANK18  BANK19  BANK20  BANK21  BANK22  BANK23  BANK24  BANK25  BANK26  BANK27  BANK28  BANK29  BANK30  BANK31
      Params:         0       0       0       0       0       0       0       0       0       0       0       0       0       0       0       0       0       0       0       0       0       0       0       0       0       0       0       0       0       0       0       0       0
      Locals:         0       1       0       0       0       0       0       0       0       0       0       0       0       0       0       0       0       0       0       0       0       0       0       0       0       0       0       0       0       0       0       0       0
      Temps:          0       0       0       0       0       0       0       0       0       0       0       0       0       0       0       0       0       0       0       0       0       0       0       0       0       0       0       0       0       0       0       0       0
      Totals:         0       1       0       0       0       0       0       0       0       0       0       0       0       0       0       0       0       0       0       0       0       0       0       0       0       0       0       0       0       0       0       0       0
Total ram usage:        1 bytes
 Hardware stack levels used:    1
 Hardware stack levels required when called:    8
 This function calls:
		_Command_Write
		_Cursor_drawing
		_Display_Message
		_GLCD_Clear
		_Select_Page
		_sprintf
 This function is called by:
		_Menu_Logic
 This function uses a non-reentrant model


 *************** function _Continous_Transmission_Length *****************
 Defined at:
		line 569 in file "main.c"
 Parameters:    Size  Location     Type
		None
 Auto vars:     Size  Location     Type
		None
 Return value:  Size  Location     Type
                  1    wreg      void 
 Registers used:
		wreg, fsr0l, fsr0h, fsr1l, fsr1h, fsr2l, fsr2h, status,2, status,0, tblptrl, tblptrh, tblptru, prodl, prodh, cstack
 Tracked objects:
		On entry : 
		On exit  : 
		Unchanged: 
 Data sizes:     COMRAM   BANK0   BANK1   BANK2   BANK3   BANK4   BANK5   BANK6   BANK7   BANK8   BANK9  BANK10  BANK11  BANK12  BANK13  BANK14  BANK15  BANK16  BANK17  BANK18  BANK19  BANK20  BANK21  BANK22  BANK23  BANK24  BANK25  BANK26  BANK27  BANK28  BANK29  BANK30  BANK31
      Params:         0       0       0       0       0       0       0       0       0       0       0       0       0       0       0       0       0       0       0       0       0       0       0       0       0       0       0       0       0       0       0       0       0
      Locals:         0       0       0       0       0       0       0       0       0       0       0       0       0       0       0       0       0       0       0       0       0       0       0       0       0       0       0       0       0       0       0       0       0
      Temps:          0       0       0       0       0       0       0       0       0       0       0       0       0       0       0       0       0       0       0       0       0       0       0       0       0       0       0       0       0       0       0       0       0
      Totals:         0       0       0       0       0       0       0       0       0       0       0       0       0       0       0       0       0       0       0       0       0       0       0       0       0       0       0       0       0       0       0       0       0
Total ram usage:        0 bytes
 Hardware stack levels used:    1
 Hardware stack levels required when called:   10
 This function calls:
		_Command_Write
		_Display_Message
		_GLCD_Clear
		_Number_Select
		_Select_Page
		_sprintf
 This function is called by:
		_Menu_Logic
 This function uses a non-reentrant model


 *************** function _Baud_rate_Change *****************
 Defined at:
		line 436 in file "main.c"
 Parameters:    Size  Location     Type
		None
 Auto vars:     Size  Location     Type
		None
 Return value:  Size  Location     Type
                  1    wreg      void 
 Registers used:
		wreg, fsr0l, fsr0h, fsr1l, fsr1h, fsr2l, fsr2h, status,2, status,0, tblptrl, tblptrh, tblptru, prodl, prodh, cstack
 Tracked objects:
		On entry : 
		On exit  : 
		Unchanged: 
 Data sizes:     COMRAM   BANK0   BANK1   BANK2   BANK3   BANK4   BANK5   BANK6   BANK7   BANK8   BANK9  BANK10  BANK11  BANK12  BANK13  BANK14  BANK15  BANK16  BANK17  BANK18  BANK19  BANK20  BANK21  BANK22  BANK23  BANK24  BANK25  BANK26  BANK27  BANK28  BANK29  BANK30  BANK31
      Params:         0       0       0       0       0       0       0       0       0       0       0       0       0       0       0       0       0       0       0       0       0       0       0       0       0       0       0       0       0       0       0       0       0
      Locals:         0       4       0       0       0       0       0       0       0       0       0       0       0       0       0       0       0       0       0       0       0       0       0       0       0       0       0       0       0       0       0       0       0
      Temps:          0       0       0       0       0       0       0       0       0       0       0       0       0       0       0       0       0       0       0       0       0       0       0       0       0       0       0       0       0       0       0       0       0
      Totals:         0       4       0       0       0       0       0       0       0       0       0       0       0       0       0       0       0       0       0       0       0       0       0       0       0       0       0       0       0       0       0       0       0
Total ram usage:        4 bytes
 Hardware stack levels used:    1
 Hardware stack levels required when called:   10
 This function calls:
		_Command_Write
		_Display_Message
		_GLCD_Clear
		_Number_Select
		_Select_Page
		___aldiv
		_sprintf
 This function is called by:
		_Menu_Logic
 This function uses a non-reentrant model


 *************** function ___aldiv *****************
 Defined at:
		line 7 in file "C:\Program Files\Microchip\xc8\v2.31\pic\sources\c99\common\aldiv.c"
 Parameters:    Size  Location     Type
  dividend        4    0[COMRAM] long 
  divisor         4    4[COMRAM] long 
 Auto vars:     Size  Location     Type
  quotient        4   10[COMRAM] long 
  sign            1    9[COMRAM] unsigned char 
  counter         1    8[COMRAM] unsigned char 
 Return value:  Size  Location     Type
                  4    0[COMRAM] long 
 Registers used:
		wreg, status,2, status,0
 Tracked objects:
		On entry : 
		On exit  : 
		Unchanged: 
 Data sizes:     COMRAM   BANK0   BANK1   BANK2   BANK3   BANK4   BANK5   BANK6   BANK7   BANK8   BANK9  BANK10  BANK11  BANK12  BANK13  BANK14  BANK15  BANK16  BANK17  BANK18  BANK19  BANK20  BANK21  BANK22  BANK23  BANK24  BANK25  BANK26  BANK27  BANK28  BANK29  BANK30  BANK31
      Params:         8       0       0       0       0       0       0       0       0       0       0       0       0       0       0       0       0       0       0       0       0       0       0       0       0       0       0       0       0       0       0       0       0
      Locals:         6       0       0       0       0       0       0       0       0       0       0       0       0       0       0       0       0       0       0       0       0       0       0       0       0       0       0       0       0       0       0       0       0
      Temps:          0       0       0       0       0       0       0       0       0       0       0       0       0       0       0       0       0       0       0       0       0       0       0       0       0       0       0       0       0       0       0       0       0
      Totals:        14       0       0       0       0       0       0       0       0       0       0       0       0       0       0       0       0       0       0       0       0       0       0       0       0       0       0       0       0       0       0       0       0
Total ram usage:       14 bytes
 Hardware stack levels used:    1
 This function calls:
		Nothing
 This function is called by:
		_Baud_rate_Change
 This function uses a non-reentrant model


 *************** function _Number_Select *****************
 Defined at:
		line 397 in file "main.c"
 Parameters:    Size  Location     Type
  number          4   14[BANK0 ] long 
  max             4   18[BANK0 ] long 
 Auto vars:     Size  Location     Type
  longPress       2   24[BANK0 ] int 
 Return value:  Size  Location     Type
                  4   14[BANK0 ] long 
 Registers used:
		wreg, fsr0l, fsr0h, fsr1l, fsr1h, fsr2l, fsr2h, status,2, status,0, tblptrl, tblptrh, tblptru, prodl, prodh, cstack
 Tracked objects:
		On entry : 
		On exit  : 
		Unchanged: 
 Data sizes:     COMRAM   BANK0   BANK1   BANK2   BANK3   BANK4   BANK5   BANK6   BANK7   BANK8   BANK9  BANK10  BANK11  BANK12  BANK13  BANK14  BANK15  BANK16  BANK17  BANK18  BANK19  BANK20  BANK21  BANK22  BANK23  BANK24  BANK25  BANK26  BANK27  BANK28  BANK29  BANK30  BANK31
      Params:         0       8       0       0       0       0       0       0       0       0       0       0       0       0       0       0       0       0       0       0       0       0       0       0       0       0       0       0       0       0       0       0       0
      Locals:         0       2       0       0       0       0       0       0       0       0       0       0       0       0       0       0       0       0       0       0       0       0       0       0       0       0       0       0       0       0       0       0       0
      Temps:          0       2       0       0       0       0       0       0       0       0       0       0       0       0       0       0       0       0       0       0       0       0       0       0       0       0       0       0       0       0       0       0       0
      Totals:         0      12       0       0       0       0       0       0       0       0       0       0       0       0       0       0       0       0       0       0       0       0       0       0       0       0       0       0       0       0       0       0       0
Total ram usage:       12 bytes
 Hardware stack levels used:    1
 Hardware stack levels required when called:    9
 This function calls:
		_Number_Update
 This function is called by:
		_Baud_rate_Change
		_Maximum_Error_Select
		_Minimum_Error_Select
		_Continous_Transmission_Length
 This function uses a non-reentrant model


 *************** function _Number_Update *****************
 Defined at:
		line 354 in file "main.c"
 Parameters:    Size  Location     Type
  number          4   10[BANK0 ] long 
 Auto vars:     Size  Location     Type
		None
 Return value:  Size  Location     Type
                  1    wreg      void 
 Registers used:
		wreg, fsr0l, fsr0h, fsr1l, fsr1h, fsr2l, fsr2h, status,2, status,0, tblptrl, tblptrh, tblptru, prodl, prodh, cstack
 Tracked objects:
		On entry : 
		On exit  : 
		Unchanged: 
 Data sizes:     COMRAM   BANK0   BANK1   BANK2   BANK3   BANK4   BANK5   BANK6   BANK7   BANK8   BANK9  BANK10  BANK11  BANK12  BANK13  BANK14  BANK15  BANK16  BANK17  BANK18  BANK19  BANK20  BANK21  BANK22  BANK23  BANK24  BANK25  BANK26  BANK27  BANK28  BANK29  BANK30  BANK31
      Params:         0       4       0       0       0       0       0       0       0       0       0       0       0       0       0       0       0       0       0       0       0       0       0       0       0       0       0       0       0       0       0       0       0
      Locals:         0       0       0       0       0       0       0       0       0       0       0       0       0       0       0       0       0       0       0       0       0       0       0       0       0       0       0       0       0       0       0       0       0
      Temps:          0       0       0       0       0       0       0       0       0       0       0       0       0       0       0       0       0       0       0       0       0       0       0       0       0       0       0       0       0       0       0       0       0
      Totals:         0       4       0       0       0       0       0       0       0       0       0       0       0       0       0       0       0       0       0       0       0       0       0       0       0       0       0       0       0       0       0       0       0
Total ram usage:        4 bytes
 Hardware stack levels used:    1
 Hardware stack levels required when called:    8
 This function calls:
		_Command_Write
		_Display_Message
		_Select_Page
		_sprintf
 This function is called by:
		_Number_Select
 This function uses a non-reentrant model


 *************** function _Baud_Rate_Settings *****************
 Defined at:
		line 295 in file "main.c"
 Parameters:    Size  Location     Type
		None
 Auto vars:     Size  Location     Type
  autoBaudChar    1   10[BANK0 ] unsigned char [1]
 Return value:  Size  Location     Type
                  1    wreg      void 
 Registers used:
		wreg, fsr0l, fsr0h, fsr1l, fsr1h, fsr2l, fsr2h, status,2, status,0, tblptrl, tblptrh, tblptru, prodl, prodh, cstack
 Tracked objects:
		On entry : 
		On exit  : 
		Unchanged: 
 Data sizes:     COMRAM   BANK0   BANK1   BANK2   BANK3   BANK4   BANK5   BANK6   BANK7   BANK8   BANK9  BANK10  BANK11  BANK12  BANK13  BANK14  BANK15  BANK16  BANK17  BANK18  BANK19  BANK20  BANK21  BANK22  BANK23  BANK24  BANK25  BANK26  BANK27  BANK28  BANK29  BANK30  BANK31
      Params:         0       0       0       0       0       0       0       0       0       0       0       0       0       0       0       0       0       0       0       0       0       0       0       0       0       0       0       0       0       0       0       0       0
      Locals:         0       1       0       0       0       0       0       0       0       0       0       0       0       0       0       0       0       0       0       0       0       0       0       0       0       0       0       0       0       0       0       0       0
      Temps:          0       0       0       0       0       0       0       0       0       0       0       0       0       0       0       0       0       0       0       0       0       0       0       0       0       0       0       0       0       0       0       0       0
      Totals:         0       1       0       0       0       0       0       0       0       0       0       0       0       0       0       0       0       0       0       0       0       0       0       0       0       0       0       0       0       0       0       0       0
Total ram usage:        1 bytes
 Hardware stack levels used:    1
 Hardware stack levels required when called:    8
 This function calls:
		_Command_Write
		_Cursor_drawing
		_Display_Message
		_GLCD_Clear
		_Select_Page
		_sprintf
 This function is called by:
		_Menu_Logic
 This function uses a non-reentrant model


 *************** function _sprintf *****************
 Defined at:
		line 9 in file "C:\Program Files\Microchip\xc8\v2.31\pic\sources\c99\common\nf_sprintf.c"
 Parameters:    Size  Location     Type
  s               2   87[COMRAM] PTR unsigned char 
		 -> Transmission_Settings@SDloggingChar(1), Transmission_Settings@ContinuousChar(1), Error_Settings@errorcheckChar(1), numberDisplayed(7), 
		 -> Toggle_Select@Char(1), Baud_Rate_Settings@autoBaudChar(1), 
  fmt             2   89[COMRAM] PTR const unsigned char 
		 -> STR_64(3), STR_63(3), STR_60(3), STR_55(3), 
		 -> STR_48(3), STR_45(3), STR_42(3), STR_35(3), 
		 -> STR_34(3), STR_33(3), STR_28(3), 
 Auto vars:     Size  Location     Type
  f               6    4[BANK0 ] struct _IO_FILE
  ap              2    2[BANK0 ] PTR void [1]
		 -> ?_sprintf(2), 
  ret             2    0        int 
 Return value:  Size  Location     Type
                  2   87[COMRAM] int 
 Registers used:
		wreg, fsr0l, fsr0h, fsr1l, fsr1h, fsr2l, fsr2h, status,2, status,0, tblptrl, tblptrh, tblptru, cstack
 Tracked objects:
		On entry : 
		On exit  : 
		Unchanged: 
 Data sizes:     COMRAM   BANK0   BANK1   BANK2   BANK3   BANK4   BANK5   BANK6   BANK7   BANK8   BANK9  BANK10  BANK11  BANK12  BANK13  BANK14  BANK15  BANK16  BANK17  BANK18  BANK19  BANK20  BANK21  BANK22  BANK23  BANK24  BANK25  BANK26  BANK27  BANK28  BANK29  BANK30  BANK31
      Params:         8       0       0       0       0       0       0       0       0       0       0       0       0       0       0       0       0       0       0       0       0       0       0       0       0       0       0       0       0       0       0       0       0
      Locals:         0      10       0       0       0       0       0       0       0       0       0       0       0       0       0       0       0       0       0       0       0       0       0       0       0       0       0       0       0       0       0       0       0
      Temps:          0       0       0       0       0       0       0       0       0       0       0       0       0       0       0       0       0       0       0       0       0       0       0       0       0       0       0       0       0       0       0       0       0
      Totals:         8      10       0       0       0       0       0       0       0       0       0       0       0       0       0       0       0       0       0       0       0       0       0       0       0       0       0       0       0       0       0       0       0
Total ram usage:       18 bytes
 Hardware stack levels used:    1
 Hardware stack levels required when called:    7
 This function calls:
		_vfprintf
 This function is called by:
		_Baud_Rate_Settings
		_Toggle_Select
		_Number_Update
		_Baud_rate_Change
		_Maximum_Error_Select
		_Minimum_Error_Select
		_Error_Settings
		_Continous_Transmission_Length
		_Transmission_Settings
 This function uses a non-reentrant model


 *************** function _vfprintf *****************
 Defined at:
		line 1390 in file "C:\Program Files\Microchip\xc8\v2.31\pic\sources\c99\common\doprnt.c"
 Parameters:    Size  Location     Type
  fp              2   79[COMRAM] PTR struct _IO_FILE
		 -> sprintf@f(6), 
  fmt             2   81[COMRAM] PTR const unsigned char 
		 -> STR_64(3), STR_63(3), STR_60(3), STR_55(3), 
		 -> STR_48(3), STR_45(3), STR_42(3), STR_35(3), 
		 -> STR_34(3), STR_33(3), STR_28(3), 
  ap              2   83[COMRAM] PTR PTR void 
		 -> sprintf@ap(2), 
 Auto vars:     Size  Location     Type
  cfmt            2   85[COMRAM] PTR unsigned char 
		 -> STR_64(3), STR_63(3), STR_60(3), STR_55(3), 
		 -> STR_48(3), STR_45(3), STR_42(3), STR_35(3), 
		 -> STR_34(3), STR_33(3), STR_28(3), 
 Return value:  Size  Location     Type
                  2   79[COMRAM] int 
 Registers used:
		wreg, fsr0l, fsr0h, fsr1l, fsr1h, fsr2l, fsr2h, status,2, status,0, tblptrl, tblptrh, tblptru, cstack
 Tracked objects:
		On entry : 
		On exit  : 
		Unchanged: 
 Data sizes:     COMRAM   BANK0   BANK1   BANK2   BANK3   BANK4   BANK5   BANK6   BANK7   BANK8   BANK9  BANK10  BANK11  BANK12  BANK13  BANK14  BANK15  BANK16  BANK17  BANK18  BANK19  BANK20  BANK21  BANK22  BANK23  BANK24  BANK25  BANK26  BANK27  BANK28  BANK29  BANK30  BANK31
      Params:         6       0       0       0       0       0       0       0       0       0       0       0       0       0       0       0       0       0       0       0       0       0       0       0       0       0       0       0       0       0       0       0       0
      Locals:         2       0       0       0       0       0       0       0       0       0       0       0       0       0       0       0       0       0       0       0       0       0       0       0       0       0       0       0       0       0       0       0       0
      Temps:          0       0       0       0       0       0       0       0       0       0       0       0       0       0       0       0       0       0       0       0       0       0       0       0       0       0       0       0       0       0       0       0       0
      Totals:         8       0       0       0       0       0       0       0       0       0       0       0       0       0       0       0       0       0       0       0       0       0       0       0       0       0       0       0       0       0       0       0       0
Total ram usage:        8 bytes
 Hardware stack levels used:    1
 Hardware stack levels required when called:    6
 This function calls:
		_vfpfcnvrt
 This function is called by:
		_sprintf
 This function uses a non-reentrant model


 *************** function _vfpfcnvrt *****************
 Defined at:
		line 692 in file "C:\Program Files\Microchip\xc8\v2.31\pic\sources\c99\common\doprnt.c"
 Parameters:    Size  Location     Type
  fp              2   63[COMRAM] PTR struct _IO_FILE
		 -> sprintf@f(6), 
  fmt             2   65[COMRAM] PTR PTR unsigned char 
		 -> vfprintf@cfmt(2), 
  ap              2   67[COMRAM] PTR PTR void 
		 -> sprintf@ap(2), 
 Auto vars:     Size  Location     Type
  ll              8   71[COMRAM] long long 
  llu             8    0        unsigned long long 
  f               4    0        unsigned long long 
  vp              3    0        PTR void 
  ct              3    0        unsigned char [3]
  cp              3    0        PTR unsigned char 
  i               2    0        int 
  done            2    0        int 
  c               1    0        unsigned char 
 Return value:  Size  Location     Type
                  2   63[COMRAM] int 
 Registers used:
		wreg, fsr0l, fsr0h, fsr1l, fsr1h, fsr2l, fsr2h, status,2, status,0, tblptrl, tblptrh, tblptru, cstack
 Tracked objects:
		On entry : 
		On exit  : 
		Unchanged: 
 Data sizes:     COMRAM   BANK0   BANK1   BANK2   BANK3   BANK4   BANK5   BANK6   BANK7   BANK8   BANK9  BANK10  BANK11  BANK12  BANK13  BANK14  BANK15  BANK16  BANK17  BANK18  BANK19  BANK20  BANK21  BANK22  BANK23  BANK24  BANK25  BANK26  BANK27  BANK28  BANK29  BANK30  BANK31
      Params:         6       0       0       0       0       0       0       0       0       0       0       0       0       0       0       0       0       0       0       0       0       0       0       0       0       0       0       0       0       0       0       0       0
      Locals:         8       0       0       0       0       0       0       0       0       0       0       0       0       0       0       0       0       0       0       0       0       0       0       0       0       0       0       0       0       0       0       0       0
      Temps:          2       0       0       0       0       0       0       0       0       0       0       0       0       0       0       0       0       0       0       0       0       0       0       0       0       0       0       0       0       0       0       0       0
      Totals:        16       0       0       0       0       0       0       0       0       0       0       0       0       0       0       0       0       0       0       0       0       0       0       0       0       0       0       0       0       0       0       0       0
Total ram usage:       16 bytes
 Hardware stack levels used:    1
 Hardware stack levels required when called:    5
 This function calls:
		_dtoa
		_fputc
 This function is called by:
		_vfprintf
 This function uses a non-reentrant model


 *************** function _dtoa *****************
 Defined at:
		line 287 in file "C:\Program Files\Microchip\xc8\v2.31\pic\sources\c99\common\doprnt.c"
 Parameters:    Size  Location     Type
  fp              2   27[COMRAM] PTR struct _IO_FILE
		 -> sprintf@f(6), 
  d               8   29[COMRAM] long long 
 Auto vars:     Size  Location     Type
  n               8   53[COMRAM] long long 
  i               2   61[COMRAM] int 
  s               2   51[COMRAM] int 
  w               2   49[COMRAM] int 
  p               2   47[COMRAM] int 
 Return value:  Size  Location     Type
                  2   27[COMRAM] int 
 Registers used:
		wreg, fsr0l, fsr0h, fsr1l, fsr1h, fsr2l, fsr2h, status,2, status,0, tblptrl, tblptrh, tblptru, cstack
 Tracked objects:
		On entry : 
		On exit  : 
		Unchanged: 
 Data sizes:     COMRAM   BANK0   BANK1   BANK2   BANK3   BANK4   BANK5   BANK6   BANK7   BANK8   BANK9  BANK10  BANK11  BANK12  BANK13  BANK14  BANK15  BANK16  BANK17  BANK18  BANK19  BANK20  BANK21  BANK22  BANK23  BANK24  BANK25  BANK26  BANK27  BANK28  BANK29  BANK30  BANK31
      Params:        10       0       0       0       0       0       0       0       0       0       0       0       0       0       0       0       0       0       0       0       0       0       0       0       0       0       0       0       0       0       0       0       0
      Locals:        18       0       0       0       0       0       0       0       0       0       0       0       0       0       0       0       0       0       0       0       0       0       0       0       0       0       0       0       0       0       0       0       0
      Temps:          8       0       0       0       0       0       0       0       0       0       0       0       0       0       0       0       0       0       0       0       0       0       0       0       0       0       0       0       0       0       0       0       0
      Totals:        36       0       0       0       0       0       0       0       0       0       0       0       0       0       0       0       0       0       0       0       0       0       0       0       0       0       0       0       0       0       0       0       0
Total ram usage:       36 bytes
 Hardware stack levels used:    1
 Hardware stack levels required when called:    4
 This function calls:
		___aodiv
		___aomod
		_abs
		_pad
 This function is called by:
		_vfpfcnvrt
 This function uses a non-reentrant model


 *************** function _pad *****************
 Defined at:
		line 72 in file "C:\Program Files\Microchip\xc8\v2.31\pic\sources\c99\common\doprnt.c"
 Parameters:    Size  Location     Type
  fp              2   16[COMRAM] PTR struct _IO_FILE
		 -> sprintf@f(6), 
  buf             2   18[COMRAM] PTR unsigned char 
		 -> dbuf(32), 
  p               2   20[COMRAM] int 
 Auto vars:     Size  Location     Type
  w               2   25[COMRAM] int 
  i               2   23[COMRAM] int 
 Return value:  Size  Location     Type
                  2   16[COMRAM] int 
 Registers used:
		wreg, fsr0l, fsr0h, fsr1l, fsr1h, fsr2l, fsr2h, status,2, status,0, tblptrl, tblptrh, tblptru, cstack
 Tracked objects:
		On entry : 
		On exit  : 
		Unchanged: 
 Data sizes:     COMRAM   BANK0   BANK1   BANK2   BANK3   BANK4   BANK5   BANK6   BANK7   BANK8   BANK9  BANK10  BANK11  BANK12  BANK13  BANK14  BANK15  BANK16  BANK17  BANK18  BANK19  BANK20  BANK21  BANK22  BANK23  BANK24  BANK25  BANK26  BANK27  BANK28  BANK29  BANK30  BANK31
      Params:         6       0       0       0       0       0       0       0       0       0       0       0       0       0       0       0       0       0       0       0       0       0       0       0       0       0       0       0       0       0       0       0       0
      Locals:         4       0       0       0       0       0       0       0       0       0       0       0       0       0       0       0       0       0       0       0       0       0       0       0       0       0       0       0       0       0       0       0       0
      Temps:          1       0       0       0       0       0       0       0       0       0       0       0       0       0       0       0       0       0       0       0       0       0       0       0       0       0       0       0       0       0       0       0       0
      Totals:        11       0       0       0       0       0       0       0       0       0       0       0       0       0       0       0       0       0       0       0       0       0       0       0       0       0       0       0       0       0       0       0       0
Total ram usage:       11 bytes
 Hardware stack levels used:    1
 Hardware stack levels required when called:    3
 This function calls:
		_fputc
		_fputs
		_strlen
 This function is called by:
		_dtoa
 This function uses a non-reentrant model


 *************** function _fputs *****************
 Defined at:
		line 8 in file "C:\Program Files\Microchip\xc8\v2.31\pic\sources\c99\common\nf_fputs.c"
 Parameters:    Size  Location     Type
  s               2    9[COMRAM] PTR const unsigned char 
		 -> dbuf(32), 
  fp              2   11[COMRAM] PTR struct _IO_FILE
		 -> sprintf@f(6), 
 Auto vars:     Size  Location     Type
  i               2   14[COMRAM] int 
  c               1   13[COMRAM] unsigned char 
 Return value:  Size  Location     Type
                  2    9[COMRAM] int 
 Registers used:
		wreg, fsr1l, fsr1h, fsr2l, fsr2h, status,2, status,0, cstack
 Tracked objects:
		On entry : 
		On exit  : 
		Unchanged: 
 Data sizes:     COMRAM   BANK0   BANK1   BANK2   BANK3   BANK4   BANK5   BANK6   BANK7   BANK8   BANK9  BANK10  BANK11  BANK12  BANK13  BANK14  BANK15  BANK16  BANK17  BANK18  BANK19  BANK20  BANK21  BANK22  BANK23  BANK24  BANK25  BANK26  BANK27  BANK28  BANK29  BANK30  BANK31
      Params:         4       0       0       0       0       0       0       0       0       0       0       0       0       0       0       0       0       0       0       0       0       0       0       0       0       0       0       0       0       0       0       0       0
      Locals:         3       0       0       0       0       0       0       0       0       0       0       0       0       0       0       0       0       0       0       0       0       0       0       0       0       0       0       0       0       0       0       0       0
      Temps:          0       0       0       0       0       0       0       0       0       0       0       0       0       0       0       0       0       0       0       0       0       0       0       0       0       0       0       0       0       0       0       0       0
      Totals:         7       0       0       0       0       0       0       0       0       0       0       0       0       0       0       0       0       0       0       0       0       0       0       0       0       0       0       0       0       0       0       0       0
Total ram usage:        7 bytes
 Hardware stack levels used:    1
 Hardware stack levels required when called:    2
 This function calls:
		_fputc
 This function is called by:
		_pad
 This function uses a non-reentrant model


 *************** function _fputc *****************
 Defined at:
		line 8 in file "C:\Program Files\Microchip\xc8\v2.31\pic\sources\c99\common\nf_fputc.c"
 Parameters:    Size  Location     Type
  c               2    0[COMRAM] int 
  fp              2    2[COMRAM] PTR struct _IO_FILE
		 -> sprintf@f(6), 
 Auto vars:     Size  Location     Type
		None
 Return value:  Size  Location     Type
                  2    0[COMRAM] int 
 Registers used:
		wreg, fsr1l, fsr1h, fsr2l, fsr2h, status,2, status,0, cstack
 Tracked objects:
		On entry : 
		On exit  : 
		Unchanged: 
 Data sizes:     COMRAM   BANK0   BANK1   BANK2   BANK3   BANK4   BANK5   BANK6   BANK7   BANK8   BANK9  BANK10  BANK11  BANK12  BANK13  BANK14  BANK15  BANK16  BANK17  BANK18  BANK19  BANK20  BANK21  BANK22  BANK23  BANK24  BANK25  BANK26  BANK27  BANK28  BANK29  BANK30  BANK31
      Params:         4       0       0       0       0       0       0       0       0       0       0       0       0       0       0       0       0       0       0       0       0       0       0       0       0       0       0       0       0       0       0       0       0
      Locals:         0       0       0       0       0       0       0       0       0       0       0       0       0       0       0       0       0       0       0       0       0       0       0       0       0       0       0       0       0       0       0       0       0
      Temps:          5       0       0       0       0       0       0       0       0       0       0       0       0       0       0       0       0       0       0       0       0       0       0       0       0       0       0       0       0       0       0       0       0
      Totals:         9       0       0       0       0       0       0       0       0       0       0       0       0       0       0       0       0       0       0       0       0       0       0       0       0       0       0       0       0       0       0       0       0
Total ram usage:        9 bytes
 Hardware stack levels used:    1
 Hardware stack levels required when called:    1
 This function calls:
		_putch
 This function is called by:
		_pad
		_vfpfcnvrt
		_fputs
 This function uses a non-reentrant model


 *************** function _putch *****************
 Defined at:
		line 7 in file "C:\Program Files\Microchip\xc8\v2.31\pic\sources\c99\common\putch.c"
 Parameters:    Size  Location     Type
  c               1    wreg     unsigned char 
 Auto vars:     Size  Location     Type
  c               1    0[COMRAM] unsigned char 
 Return value:  Size  Location     Type
                  1    wreg      void 
 Registers used:
		wreg
 Tracked objects:
		On entry : 
		On exit  : 
		Unchanged: 
 Data sizes:     COMRAM   BANK0   BANK1   BANK2   BANK3   BANK4   BANK5   BANK6   BANK7   BANK8   BANK9  BANK10  BANK11  BANK12  BANK13  BANK14  BANK15  BANK16  BANK17  BANK18  BANK19  BANK20  BANK21  BANK22  BANK23  BANK24  BANK25  BANK26  BANK27  BANK28  BANK29  BANK30  BANK31
      Params:         0       0       0       0       0       0       0       0       0       0       0       0       0       0       0       0       0       0       0       0       0       0       0       0       0       0       0       0       0       0       0       0       0
      Locals:         0       0       0       0       0       0       0       0       0       0       0       0       0       0       0       0       0       0       0       0       0       0       0       0       0       0       0       0       0       0       0       0       0
      Temps:          0       0       0       0       0       0       0       0       0       0       0       0       0       0       0       0       0       0       0       0       0       0       0       0       0       0       0       0       0       0       0       0       0
      Totals:         0       0       0       0       0       0       0       0       0       0       0       0       0       0       0       0       0       0       0       0       0       0       0       0       0       0       0       0       0       0       0       0       0
Total ram usage:        0 bytes
 Hardware stack levels used:    1
 This function calls:
		Nothing
 This function is called by:
		_fputc
 This function uses a non-reentrant model


 *************** function _abs *****************
 Defined at:
		line 1 in file "C:\Program Files\Microchip\xc8\v2.31\pic\sources\c99\common\abs.c"
 Parameters:    Size  Location     Type
  a               2   18[COMRAM] int 
 Auto vars:     Size  Location     Type
		None
 Return value:  Size  Location     Type
                  2   18[COMRAM] int 
 Registers used:
		wreg, status,2, status,0
 Tracked objects:
		On entry : 
		On exit  : 
		Unchanged: 
 Data sizes:     COMRAM   BANK0   BANK1   BANK2   BANK3   BANK4   BANK5   BANK6   BANK7   BANK8   BANK9  BANK10  BANK11  BANK12  BANK13  BANK14  BANK15  BANK16  BANK17  BANK18  BANK19  BANK20  BANK21  BANK22  BANK23  BANK24  BANK25  BANK26  BANK27  BANK28  BANK29  BANK30  BANK31
      Params:         2       0       0       0       0       0       0       0       0       0       0       0       0       0       0       0       0       0       0       0       0       0       0       0       0       0       0       0       0       0       0       0       0
      Locals:         0       0       0       0       0       0       0       0       0       0       0       0       0       0       0       0       0       0       0       0       0       0       0       0       0       0       0       0       0       0       0       0       0
      Temps:          2       0       0       0       0       0       0       0       0       0       0       0       0       0       0       0       0       0       0       0       0       0       0       0       0       0       0       0       0       0       0       0       0
      Totals:         4       0       0       0       0       0       0       0       0       0       0       0       0       0       0       0       0       0       0       0       0       0       0       0       0       0       0       0       0       0       0       0       0
Total ram usage:        4 bytes
 Hardware stack levels used:    1
 This function calls:
		Nothing
 This function is called by:
		_dtoa
 This function uses a non-reentrant model


 *************** function ___aomod *****************
 Defined at:
		line 9 in file "C:\Program Files\Microchip\xc8\v2.31\pic\sources\c99\common\aomod.c"
 Parameters:    Size  Location     Type
  dividend        8    0[COMRAM] long long 
  divisor         8    8[COMRAM] long long 
 Auto vars:     Size  Location     Type
  sign            1   17[COMRAM] unsigned char 
  counter         1   16[COMRAM] unsigned char 
 Return value:  Size  Location     Type
                  8    0[COMRAM] long long 
 Registers used:
		wreg, status,2, status,0
 Tracked objects:
		On entry : 
		On exit  : 
		Unchanged: 
 Data sizes:     COMRAM   BANK0   BANK1   BANK2   BANK3   BANK4   BANK5   BANK6   BANK7   BANK8   BANK9  BANK10  BANK11  BANK12  BANK13  BANK14  BANK15  BANK16  BANK17  BANK18  BANK19  BANK20  BANK21  BANK22  BANK23  BANK24  BANK25  BANK26  BANK27  BANK28  BANK29  BANK30  BANK31
      Params:        16       0       0       0       0       0       0       0       0       0       0       0       0       0       0       0       0       0       0       0       0       0       0       0       0       0       0       0       0       0       0       0       0
      Locals:         2       0       0       0       0       0       0       0       0       0       0       0       0       0       0       0       0       0       0       0       0       0       0       0       0       0       0       0       0       0       0       0       0
      Temps:          0       0       0       0       0       0       0       0       0       0       0       0       0       0       0       0       0       0       0       0       0       0       0       0       0       0       0       0       0       0       0       0       0
      Totals:        18       0       0       0       0       0       0       0       0       0       0       0       0       0       0       0       0       0       0       0       0       0       0       0       0       0       0       0       0       0       0       0       0
Total ram usage:       18 bytes
 Hardware stack levels used:    1
 This function calls:
		Nothing
 This function is called by:
		_dtoa
 This function uses a non-reentrant model


 *************** function ___aodiv *****************
 Defined at:
		line 9 in file "C:\Program Files\Microchip\xc8\v2.31\pic\sources\c99\common\aodiv.c"
 Parameters:    Size  Location     Type
  dividend        8    0[COMRAM] long long 
  divisor         8    8[COMRAM] long long 
 Auto vars:     Size  Location     Type
  quotient        8   18[COMRAM] long long 
  sign            1   17[COMRAM] unsigned char 
  counter         1   16[COMRAM] unsigned char 
 Return value:  Size  Location     Type
                  8    0[COMRAM] long long 
 Registers used:
		wreg, fsr2l, fsr2h, status,2, status,0
 Tracked objects:
		On entry : 
		On exit  : 
		Unchanged: 
 Data sizes:     COMRAM   BANK0   BANK1   BANK2   BANK3   BANK4   BANK5   BANK6   BANK7   BANK8   BANK9  BANK10  BANK11  BANK12  BANK13  BANK14  BANK15  BANK16  BANK17  BANK18  BANK19  BANK20  BANK21  BANK22  BANK23  BANK24  BANK25  BANK26  BANK27  BANK28  BANK29  BANK30  BANK31
      Params:        16       0       0       0       0       0       0       0       0       0       0       0       0       0       0       0       0       0       0       0       0       0       0       0       0       0       0       0       0       0       0       0       0
      Locals:        10       0       0       0       0       0       0       0       0       0       0       0       0       0       0       0       0       0       0       0       0       0       0       0       0       0       0       0       0       0       0       0       0
      Temps:          0       0       0       0       0       0       0       0       0       0       0       0       0       0       0       0       0       0       0       0       0       0       0       0       0       0       0       0       0       0       0       0       0
      Totals:        26       0       0       0       0       0       0       0       0       0       0       0       0       0       0       0       0       0       0       0       0       0       0       0       0       0       0       0       0       0       0       0       0
Total ram usage:       26 bytes
 Hardware stack levels used:    1
 This function calls:
		Nothing
 This function is called by:
		_dtoa
 This function uses a non-reentrant model


 *************** function _Cursor_drawing *****************
 Defined at:
		line 780 in file "main.c"
 Parameters:    Size  Location     Type
		None
 Auto vars:     Size  Location     Type
		None
 Return value:  Size  Location     Type
                  1    wreg      void 
 Registers used:
		wreg, status,2, status,0, tblptrl, tblptrh, tblptru, prodl, prodh, cstack
 Tracked objects:
		On entry : 
		On exit  : 
		Unchanged: 
 Data sizes:     COMRAM   BANK0   BANK1   BANK2   BANK3   BANK4   BANK5   BANK6   BANK7   BANK8   BANK9  BANK10  BANK11  BANK12  BANK13  BANK14  BANK15  BANK16  BANK17  BANK18  BANK19  BANK20  BANK21  BANK22  BANK23  BANK24  BANK25  BANK26  BANK27  BANK28  BANK29  BANK30  BANK31
      Params:         0       0       0       0       0       0       0       0       0       0       0       0       0       0       0       0       0       0       0       0       0       0       0       0       0       0       0       0       0       0       0       0       0
      Locals:         0       0       0       0       0       0       0       0       0       0       0       0       0       0       0       0       0       0       0       0       0       0       0       0       0       0       0       0       0       0       0       0       0
      Temps:          2       0       0       0       0       0       0       0       0       0       0       0       0       0       0       0       0       0       0       0       0       0       0       0       0       0       0       0       0       0       0       0       0
      Totals:         2       0       0       0       0       0       0       0       0       0       0       0       0       0       0       0       0       0       0       0       0       0       0       0       0       0       0       0       0       0       0       0       0
Total ram usage:        2 bytes
 Hardware stack levels used:    1
 Hardware stack levels required when called:    2
 This function calls:
		_Command_Write
		_Display_Character
		_Select_Page
 This function is called by:
		_Settings_Menu
		_UART_Settings
		_Baud_Rate_Settings
		_Error_select_range
		_Error_Settings
		_Transmission_Settings
		_Cursor_Position
 This function uses a non-reentrant model


 *************** function _Auto_Boud *****************
 Defined at:
		line 658 in file "main.c"
 Parameters:    Size  Location     Type
		None
 Auto vars:     Size  Location     Type
		None
 Return value:  Size  Location     Type
                  1    wreg      void 
 Registers used:
		wreg, fsr0l, fsr0h, status,2, status,0, tblptrl, tblptrh, tblptru, prodl, prodh, cstack
 Tracked objects:
		On entry : 
		On exit  : 
		Unchanged: 
 Data sizes:     COMRAM   BANK0   BANK1   BANK2   BANK3   BANK4   BANK5   BANK6   BANK7   BANK8   BANK9  BANK10  BANK11  BANK12  BANK13  BANK14  BANK15  BANK16  BANK17  BANK18  BANK19  BANK20  BANK21  BANK22  BANK23  BANK24  BANK25  BANK26  BANK27  BANK28  BANK29  BANK30  BANK31
      Params:         0       0       0       0       0       0       0       0       0       0       0       0       0       0       0       0       0       0       0       0       0       0       0       0       0       0       0       0       0       0       0       0       0
      Locals:         0       0       0       0       0       0       0       0       0       0       0       0       0       0       0       0       0       0       0       0       0       0       0       0       0       0       0       0       0       0       0       0       0
      Temps:          0       0       0       0       0       0       0       0       0       0       0       0       0       0       0       0       0       0       0       0       0       0       0       0       0       0       0       0       0       0       0       0       0
      Totals:         0       0       0       0       0       0       0       0       0       0       0       0       0       0       0       0       0       0       0       0       0       0       0       0       0       0       0       0       0       0       0       0       0
Total ram usage:        0 bytes
 Hardware stack levels used:    1
 Hardware stack levels required when called:    3
 This function calls:
		_Auto_Boud_Setup
		_Command_Write
		_Display_Message
		_GLCD_Clear
		_Select_Page
 This function is called by:
		_Menu_Logic
 This function uses a non-reentrant model


 *************** function _GLCD_Clear *****************
 Defined at:
		line 185 in file "Display.c"
 Parameters:    Size  Location     Type
		None
 Auto vars:     Size  Location     Type
  line            1    3[COMRAM] unsigned char 
  cursor          1    2[COMRAM] unsigned char 
 Return value:  Size  Location     Type
                  1    wreg      void 
 Registers used:
		wreg, status,2, status,0, cstack
 Tracked objects:
		On entry : 
		On exit  : 
		Unchanged: 
 Data sizes:     COMRAM   BANK0   BANK1   BANK2   BANK3   BANK4   BANK5   BANK6   BANK7   BANK8   BANK9  BANK10  BANK11  BANK12  BANK13  BANK14  BANK15  BANK16  BANK17  BANK18  BANK19  BANK20  BANK21  BANK22  BANK23  BANK24  BANK25  BANK26  BANK27  BANK28  BANK29  BANK30  BANK31
      Params:         0       0       0       0       0       0       0       0       0       0       0       0       0       0       0       0       0       0       0       0       0       0       0       0       0       0       0       0       0       0       0       0       0
      Locals:         2       0       0       0       0       0       0       0       0       0       0       0       0       0       0       0       0       0       0       0       0       0       0       0       0       0       0       0       0       0       0       0       0
      Temps:          0       0       0       0       0       0       0       0       0       0       0       0       0       0       0       0       0       0       0       0       0       0       0       0       0       0       0       0       0       0       0       0       0
      Totals:         2       0       0       0       0       0       0       0       0       0       0       0       0       0       0       0       0       0       0       0       0       0       0       0       0       0       0       0       0       0       0       0       0
Total ram usage:        2 bytes
 Hardware stack levels used:    1
 Hardware stack levels required when called:    1
 This function calls:
		_Command_Write
		_Data_Write
		_Select_Page
 This function is called by:
		_Menu
		_Settings_Menu
		_UART_Command_Mapper
		_UART_Print
		_UART_Start
		_UART_Settings
		_Baud_Rate_Settings
		_Baud_rate_Change
		_Maximum_Error_Select
		_Minimum_Error_Select
		_Error_select_range
		_Error_Settings
		_Continous_Transmission_Length
		_Transmission_Settings
		_Auto_Boud
		_Cursor_Position
		_main
		_Error_Message
 This function uses a non-reentrant model


 *************** function _Display_Message *****************
 Defined at:
		line 177 in file "Display.c"
 Parameters:    Size  Location     Type
  message         2    7[COMRAM] PTR unsigned char 
		 -> STR_75(6), STR_74(9), STR_73(13), STR_72(12), 
		 -> STR_71(6), STR_70(12), STR_69(7), STR_68(11), 
		 -> STR_67(11), STR_66(9), STR_65(13), Transmission_Settings@SDloggingChar(1), 
		 -> Transmission_Settings@ContinuousChar(1), STR_62(7), STR_61(13), STR_59(14), 
		 -> STR_58(12), STR_57(9), STR_56(6), Error_Settings@errorcheckChar(1), 
		 -> STR_54(8), STR_53(8), STR_52(9), STR_51(6), 
		 -> STR_50(6), STR_49(8), STR_47(6), STR_46(8), 
		 -> STR_44(5), STR_43(5), STR_41(4), STR_40(5), 
		 -> STR_39(6), STR_38(7), STR_37(9), STR_36(10), 
		 -> numberDisplayed(7), Toggle_Select@Char(1), STR_32(7), STR_31(10), 
		 -> STR_30(9), STR_29(5), Baud_Rate_Settings@autoBaudChar(1), STR_27(10), 
		 -> STR_26(13), STR_25(9), STR_24(5), STR_23(13), 
		 -> STR_22(6), STR_21(5), STR_20(9), STR_19(7), 
		 -> STR_18(8), STR_17(7), STR_16(13), STR_15(6), 
		 -> STR_14(7), STR_13(6), STR_12(9), STR_11(6), 
		 -> STR_10(5), STR_9(5), 
 Auto vars:     Size  Location     Type
  i               2   12[COMRAM] int 
  data            1   11[COMRAM] unsigned char 
 Return value:  Size  Location     Type
                  1    wreg      void 
 Registers used:
		wreg, fsr0l, fsr0h, status,2, status,0, tblptrl, tblptrh, tblptru, prodl, prodh, cstack
 Tracked objects:
		On entry : 
		On exit  : 
		Unchanged: 
 Data sizes:     COMRAM   BANK0   BANK1   BANK2   BANK3   BANK4   BANK5   BANK6   BANK7   BANK8   BANK9  BANK10  BANK11  BANK12  BANK13  BANK14  BANK15  BANK16  BANK17  BANK18  BANK19  BANK20  BANK21  BANK22  BANK23  BANK24  BANK25  BANK26  BANK27  BANK28  BANK29  BANK30  BANK31
      Params:         2       0       0       0       0       0       0       0       0       0       0       0       0       0       0       0       0       0       0       0       0       0       0       0       0       0       0       0       0       0       0       0       0
      Locals:         3       0       0       0       0       0       0       0       0       0       0       0       0       0       0       0       0       0       0       0       0       0       0       0       0       0       0       0       0       0       0       0       0
      Temps:          2       0       0       0       0       0       0       0       0       0       0       0       0       0       0       0       0       0       0       0       0       0       0       0       0       0       0       0       0       0       0       0       0
      Totals:         7       0       0       0       0       0       0       0       0       0       0       0       0       0       0       0       0       0       0       0       0       0       0       0       0       0       0       0       0       0       0       0       0
Total ram usage:        7 bytes
 Hardware stack levels used:    1
 Hardware stack levels required when called:    2
 This function calls:
		_Display_Character
		_strlen
 This function is called by:
		_Menu
		_Settings_Menu
		_UART_Clear_Line
		_UART_Settings
		_Baud_Rate_Settings
		_Toggle_Select
		_Number_Update
		_Baud_rate_Change
		_Maximum_Error_Select
		_Minimum_Error_Select
		_Error_select_range
		_Error_Settings
		_Continous_Transmission_Length
		_Transmission_Settings
		_Auto_Boud
		_Error_Message
 This function uses a non-reentrant model


 *************** function _strlen *****************
 Defined at:
		line 5 in file "C:\Program Files\Microchip\xc8\v2.31\pic\sources\c99\common\strlen.c"
 Parameters:    Size  Location     Type
  s               2    0[COMRAM] PTR const unsigned char 
		 -> dbuf(32), STR_75(6), STR_74(9), STR_73(13), 
		 -> STR_72(12), STR_71(6), STR_70(12), STR_69(7), 
		 -> STR_68(11), STR_67(11), STR_66(9), STR_65(13), 
		 -> Transmission_Settings@SDloggingChar(1), Transmission_Settings@ContinuousChar(1), STR_62(7), STR_61(13), 
		 -> STR_59(14), STR_58(12), STR_57(9), STR_56(6), 
		 -> Error_Settings@errorcheckChar(1), STR_54(8), STR_53(8), STR_52(9), 
		 -> STR_51(6), STR_50(6), STR_49(8), STR_47(6), 
		 -> STR_46(8), STR_44(5), STR_43(5), STR_41(4), 
		 -> STR_40(5), STR_39(6), STR_38(7), STR_37(9), 
		 -> STR_36(10), numberDisplayed(7), Toggle_Select@Char(1), STR_32(7), 
		 -> STR_31(10), STR_30(9), STR_29(5), Baud_Rate_Settings@autoBaudChar(1), 
		 -> STR_27(10), STR_26(13), STR_25(9), STR_24(5), 
		 -> STR_23(13), STR_22(6), STR_21(5), STR_20(9), 
		 -> STR_19(7), STR_18(8), STR_17(7), STR_16(13), 
		 -> STR_15(6), STR_14(7), STR_13(6), STR_12(9), 
		 -> STR_11(6), STR_10(5), STR_9(5), 
 Auto vars:     Size  Location     Type
  a               2    2[COMRAM] PTR const unsigned char 
		 -> dbuf(32), STR_75(6), STR_74(9), STR_73(13), 
		 -> STR_72(12), STR_71(6), STR_70(12), STR_69(7), 
		 -> STR_68(11), STR_67(11), STR_66(9), STR_65(13), 
		 -> Transmission_Settings@SDloggingChar(1), Transmission_Settings@ContinuousChar(1), STR_62(7), STR_61(13), 
		 -> STR_59(14), STR_58(12), STR_57(9), STR_56(6), 
		 -> Error_Settings@errorcheckChar(1), STR_54(8), STR_53(8), STR_52(9), 
		 -> STR_51(6), STR_50(6), STR_49(8), STR_47(6), 
		 -> STR_46(8), STR_44(5), STR_43(5), STR_41(4), 
		 -> STR_40(5), STR_39(6), STR_38(7), STR_37(9), 
		 -> STR_36(10), numberDisplayed(7), Toggle_Select@Char(1), STR_32(7), 
		 -> STR_31(10), STR_30(9), STR_29(5), Baud_Rate_Settings@autoBaudChar(1), 
		 -> STR_27(10), STR_26(13), STR_25(9), STR_24(5), 
		 -> STR_23(13), STR_22(6), STR_21(5), STR_20(9), 
		 -> STR_19(7), STR_18(8), STR_17(7), STR_16(13), 
		 -> STR_15(6), STR_14(7), STR_13(6), STR_12(9), 
		 -> STR_11(6), STR_10(5), STR_9(5), 
 Return value:  Size  Location     Type
                  2    0[COMRAM] unsigned int 
 Registers used:
		wreg, fsr0l, fsr0h, status,2, status,0, tblptrl, tblptrh, tblptru
 Tracked objects:
		On entry : 
		On exit  : 
		Unchanged: 
 Data sizes:     COMRAM   BANK0   BANK1   BANK2   BANK3   BANK4   BANK5   BANK6   BANK7   BANK8   BANK9  BANK10  BANK11  BANK12  BANK13  BANK14  BANK15  BANK16  BANK17  BANK18  BANK19  BANK20  BANK21  BANK22  BANK23  BANK24  BANK25  BANK26  BANK27  BANK28  BANK29  BANK30  BANK31
      Params:         2       0       0       0       0       0       0       0       0       0       0       0       0       0       0       0       0       0       0       0       0       0       0       0       0       0       0       0       0       0       0       0       0
      Locals:         2       0       0       0       0       0       0       0       0       0       0       0       0       0       0       0       0       0       0       0       0       0       0       0       0       0       0       0       0       0       0       0       0
      Temps:          0       0       0       0       0       0       0       0       0       0       0       0       0       0       0       0       0       0       0       0       0       0       0       0       0       0       0       0       0       0       0       0       0
      Totals:         4       0       0       0       0       0       0       0       0       0       0       0       0       0       0       0       0       0       0       0       0       0       0       0       0       0       0       0       0       0       0       0       0
Total ram usage:        4 bytes
 Hardware stack levels used:    1
 This function calls:
		Nothing
 This function is called by:
		_Display_Message
		_pad
 This function uses a non-reentrant model


 *************** function _Auto_Boud_Setup *****************
 Defined at:
		line 644 in file "main.c"
 Parameters:    Size  Location     Type
		None
 Auto vars:     Size  Location     Type
  i               2    9[COMRAM] int 
  syncChar        1    8[COMRAM] unsigned char 
 Return value:  Size  Location     Type
                  2    6[COMRAM] int 
 Registers used:
		wreg, status,2, status,0, cstack
 Tracked objects:
		On entry : 
		On exit  : 
		Unchanged: 
 Data sizes:     COMRAM   BANK0   BANK1   BANK2   BANK3   BANK4   BANK5   BANK6   BANK7   BANK8   BANK9  BANK10  BANK11  BANK12  BANK13  BANK14  BANK15  BANK16  BANK17  BANK18  BANK19  BANK20  BANK21  BANK22  BANK23  BANK24  BANK25  BANK26  BANK27  BANK28  BANK29  BANK30  BANK31
      Params:         2       0       0       0       0       0       0       0       0       0       0       0       0       0       0       0       0       0       0       0       0       0       0       0       0       0       0       0       0       0       0       0       0
      Locals:         3       0       0       0       0       0       0       0       0       0       0       0       0       0       0       0       0       0       0       0       0       0       0       0       0       0       0       0       0       0       0       0       0
      Temps:          0       0       0       0       0       0       0       0       0       0       0       0       0       0       0       0       0       0       0       0       0       0       0       0       0       0       0       0       0       0       0       0       0
      Totals:         5       0       0       0       0       0       0       0       0       0       0       0       0       0       0       0       0       0       0       0       0       0       0       0       0       0       0       0       0       0       0       0       0
Total ram usage:        5 bytes
 Hardware stack levels used:    1
 Hardware stack levels required when called:    1
 This function calls:
		_UART1_Initialize
		_UART1_Read
 This function is called by:
		_Auto_Boud
 This function uses a non-reentrant model


 *************** function _UART1_Read *****************
 Defined at:
		line 22 in file "UART.c"
 Parameters:    Size  Location     Type
		None
 Auto vars:     Size  Location     Type
		None
 Return value:  Size  Location     Type
                  1    wreg      unsigned char 
 Registers used:
		wreg, status,2
 Tracked objects:
		On entry : 
		On exit  : 
		Unchanged: 
 Data sizes:     COMRAM   BANK0   BANK1   BANK2   BANK3   BANK4   BANK5   BANK6   BANK7   BANK8   BANK9  BANK10  BANK11  BANK12  BANK13  BANK14  BANK15  BANK16  BANK17  BANK18  BANK19  BANK20  BANK21  BANK22  BANK23  BANK24  BANK25  BANK26  BANK27  BANK28  BANK29  BANK30  BANK31
      Params:         0       0       0       0       0       0       0       0       0       0       0       0       0       0       0       0       0       0       0       0       0       0       0       0       0       0       0       0       0       0       0       0       0
      Locals:         0       0       0       0       0       0       0       0       0       0       0       0       0       0       0       0       0       0       0       0       0       0       0       0       0       0       0       0       0       0       0       0       0
      Temps:          0       0       0       0       0       0       0       0       0       0       0       0       0       0       0       0       0       0       0       0       0       0       0       0       0       0       0       0       0       0       0       0       0
      Totals:         0       0       0       0       0       0       0       0       0       0       0       0       0       0       0       0       0       0       0       0       0       0       0       0       0       0       0       0       0       0       0       0       0
Total ram usage:        0 bytes
 Hardware stack levels used:    1
 This function calls:
		Nothing
 This function is called by:
		_UART_Message
		_UART_Line
		_UART_Cursor
		_UART_Page
		_UART_Message_Lenght
		_UART_Check_Command
		_UART_Check_Comm_Start
		_Auto_Boud_Setup
 This function uses a non-reentrant model


 *************** function _UART1_Initialize *****************
 Defined at:
		line 3 in file "UART.c"
 Parameters:    Size  Location     Type
  baudRate        4    0[COMRAM] long 
  autoBaud        2    4[COMRAM] int 
 Auto vars:     Size  Location     Type
		None
 Return value:  Size  Location     Type
                  1    wreg      void 
 Registers used:
		wreg, status,2, status,0
 Tracked objects:
		On entry : 
		On exit  : 
		Unchanged: 
 Data sizes:     COMRAM   BANK0   BANK1   BANK2   BANK3   BANK4   BANK5   BANK6   BANK7   BANK8   BANK9  BANK10  BANK11  BANK12  BANK13  BANK14  BANK15  BANK16  BANK17  BANK18  BANK19  BANK20  BANK21  BANK22  BANK23  BANK24  BANK25  BANK26  BANK27  BANK28  BANK29  BANK30  BANK31
      Params:         6       0       0       0       0       0       0       0       0       0       0       0       0       0       0       0       0       0       0       0       0       0       0       0       0       0       0       0       0       0       0       0       0
      Locals:         0       0       0       0       0       0       0       0       0       0       0       0       0       0       0       0       0       0       0       0       0       0       0       0       0       0       0       0       0       0       0       0       0
      Temps:          0       0       0       0       0       0       0       0       0       0       0       0       0       0       0       0       0       0       0       0       0       0       0       0       0       0       0       0       0       0       0       0       0
      Totals:         6       0       0       0       0       0       0       0       0       0       0       0       0       0       0       0       0       0       0       0       0       0       0       0       0       0       0       0       0       0       0       0       0
Total ram usage:        6 bytes
 Hardware stack levels used:    1
 This function calls:
		Nothing
 This function is called by:
		_UART_Start
		_Auto_Boud_Setup
 This function uses a non-reentrant model


 *************** function _Cursor_delete *****************
 Defined at:
		line 805 in file "main.c"
 Parameters:    Size  Location     Type
		None
 Auto vars:     Size  Location     Type
		None
 Return value:  Size  Location     Type
                  1    wreg      void 
 Registers used:
		wreg, status,2, status,0, tblptrl, tblptrh, tblptru, prodl, prodh, cstack
 Tracked objects:
		On entry : 
		On exit  : 
		Unchanged: 
 Data sizes:     COMRAM   BANK0   BANK1   BANK2   BANK3   BANK4   BANK5   BANK6   BANK7   BANK8   BANK9  BANK10  BANK11  BANK12  BANK13  BANK14  BANK15  BANK16  BANK17  BANK18  BANK19  BANK20  BANK21  BANK22  BANK23  BANK24  BANK25  BANK26  BANK27  BANK28  BANK29  BANK30  BANK31
      Params:         0       0       0       0       0       0       0       0       0       0       0       0       0       0       0       0       0       0       0       0       0       0       0       0       0       0       0       0       0       0       0       0       0
      Locals:         0       0       0       0       0       0       0       0       0       0       0       0       0       0       0       0       0       0       0       0       0       0       0       0       0       0       0       0       0       0       0       0       0
      Temps:          0       0       0       0       0       0       0       0       0       0       0       0       0       0       0       0       0       0       0       0       0       0       0       0       0       0       0       0       0       0       0       0       0
      Totals:         0       0       0       0       0       0       0       0       0       0       0       0       0       0       0       0       0       0       0       0       0       0       0       0       0       0       0       0       0       0       0       0       0
Total ram usage:        0 bytes
 Hardware stack levels used:    1
 Hardware stack levels required when called:    2
 This function calls:
		_Command_Write
		_Display_Character
		_Select_Page
 This function is called by:
		_Cursor_Position
 This function uses a non-reentrant model


 *************** function _Display_Character *****************
 Defined at:
		line 166 in file "Display.c"
 Parameters:    Size  Location     Type
  ASCII           1    wreg     unsigned char 
 Auto vars:     Size  Location     Type
  ASCII           1    4[COMRAM] unsigned char 
  i               2    5[COMRAM] int 
  dat             1    3[COMRAM] unsigned char 
 Return value:  Size  Location     Type
                  1    wreg      void 
 Registers used:
		wreg, status,2, status,0, tblptrl, tblptrh, tblptru, prodl, prodh, cstack
 Tracked objects:
		On entry : 
		On exit  : 
		Unchanged: 
 Data sizes:     COMRAM   BANK0   BANK1   BANK2   BANK3   BANK4   BANK5   BANK6   BANK7   BANK8   BANK9  BANK10  BANK11  BANK12  BANK13  BANK14  BANK15  BANK16  BANK17  BANK18  BANK19  BANK20  BANK21  BANK22  BANK23  BANK24  BANK25  BANK26  BANK27  BANK28  BANK29  BANK30  BANK31
      Params:         0       0       0       0       0       0       0       0       0       0       0       0       0       0       0       0       0       0       0       0       0       0       0       0       0       0       0       0       0       0       0       0       0
      Locals:         4       0       0       0       0       0       0       0       0       0       0       0       0       0       0       0       0       0       0       0       0       0       0       0       0       0       0       0       0       0       0       0       0
      Temps:          2       0       0       0       0       0       0       0       0       0       0       0       0       0       0       0       0       0       0       0       0       0       0       0       0       0       0       0       0       0       0       0       0
      Totals:         6       0       0       0       0       0       0       0       0       0       0       0       0       0       0       0       0       0       0       0       0       0       0       0       0       0       0       0       0       0       0       0       0
Total ram usage:        6 bytes
 Hardware stack levels used:    1
 Hardware stack levels required when called:    1
 This function calls:
		_Data_Write
 This function is called by:
		_Display_Message
		_Error_Check
		_UART_Message
		_Transmission_Settings
		_Cursor_drawing
		_Cursor_delete
 This function uses a non-reentrant model


 *************** function _Data_Write *****************
 Defined at:
		line 156 in file "Display.c"
 Parameters:    Size  Location     Type
  dat             1    wreg     unsigned char 
 Auto vars:     Size  Location     Type
  dat             1    0[COMRAM] unsigned char 
 Return value:  Size  Location     Type
                  1    wreg      void 
 Registers used:
		wreg
 Tracked objects:
		On entry : 
		On exit  : 
		Unchanged: 
 Data sizes:     COMRAM   BANK0   BANK1   BANK2   BANK3   BANK4   BANK5   BANK6   BANK7   BANK8   BANK9  BANK10  BANK11  BANK12  BANK13  BANK14  BANK15  BANK16  BANK17  BANK18  BANK19  BANK20  BANK21  BANK22  BANK23  BANK24  BANK25  BANK26  BANK27  BANK28  BANK29  BANK30  BANK31
      Params:         0       0       0       0       0       0       0       0       0       0       0       0       0       0       0       0       0       0       0       0       0       0       0       0       0       0       0       0       0       0       0       0       0
      Locals:         1       0       0       0       0       0       0       0       0       0       0       0       0       0       0       0       0       0       0       0       0       0       0       0       0       0       0       0       0       0       0       0       0
      Temps:          0       0       0       0       0       0       0       0       0       0       0       0       0       0       0       0       0       0       0       0       0       0       0       0       0       0       0       0       0       0       0       0       0
      Totals:         1       0       0       0       0       0       0       0       0       0       0       0       0       0       0       0       0       0       0       0       0       0       0       0       0       0       0       0       0       0       0       0       0
Total ram usage:        1 bytes
 Hardware stack levels used:    1
 This function calls:
		Nothing
 This function is called by:
		_Display_Character
		_GLCD_Clear
 This function uses a non-reentrant model


 *************** function _GLCD_Initialise *****************
 Defined at:
		line 111 in file "Display.c"
 Parameters:    Size  Location     Type
		None
 Auto vars:     Size  Location     Type
		None
 Return value:  Size  Location     Type
                  1    wreg      void 
 Registers used:
		wreg, status,2, status,0, cstack
 Tracked objects:
		On entry : 
		On exit  : 
		Unchanged: 
 Data sizes:     COMRAM   BANK0   BANK1   BANK2   BANK3   BANK4   BANK5   BANK6   BANK7   BANK8   BANK9  BANK10  BANK11  BANK12  BANK13  BANK14  BANK15  BANK16  BANK17  BANK18  BANK19  BANK20  BANK21  BANK22  BANK23  BANK24  BANK25  BANK26  BANK27  BANK28  BANK29  BANK30  BANK31
      Params:         0       0       0       0       0       0       0       0       0       0       0       0       0       0       0       0       0       0       0       0       0       0       0       0       0       0       0       0       0       0       0       0       0
      Locals:         0       0       0       0       0       0       0       0       0       0       0       0       0       0       0       0       0       0       0       0       0       0       0       0       0       0       0       0       0       0       0       0       0
      Temps:          0       0       0       0       0       0       0       0       0       0       0       0       0       0       0       0       0       0       0       0       0       0       0       0       0       0       0       0       0       0       0       0       0
      Totals:         0       0       0       0       0       0       0       0       0       0       0       0       0       0       0       0       0       0       0       0       0       0       0       0       0       0       0       0       0       0       0       0       0
Total ram usage:        0 bytes
 Hardware stack levels used:    1
 Hardware stack levels required when called:    1
 This function calls:
		_Command_Write
		_Select_Page
 This function is called by:
		_main
 This function uses a non-reentrant model


 *************** function _Select_Page *****************
 Defined at:
		line 128 in file "Display.c"
 Parameters:    Size  Location     Type
  select          2    0[COMRAM] int 
 Auto vars:     Size  Location     Type
		None
 Return value:  Size  Location     Type
                  1    wreg      void 
 Registers used:
		wreg, status,2, status,0
 Tracked objects:
		On entry : 
		On exit  : 
		Unchanged: 
 Data sizes:     COMRAM   BANK0   BANK1   BANK2   BANK3   BANK4   BANK5   BANK6   BANK7   BANK8   BANK9  BANK10  BANK11  BANK12  BANK13  BANK14  BANK15  BANK16  BANK17  BANK18  BANK19  BANK20  BANK21  BANK22  BANK23  BANK24  BANK25  BANK26  BANK27  BANK28  BANK29  BANK30  BANK31
      Params:         2       0       0       0       0       0       0       0       0       0       0       0       0       0       0       0       0       0       0       0       0       0       0       0       0       0       0       0       0       0       0       0       0
      Locals:         0       0       0       0       0       0       0       0       0       0       0       0       0       0       0       0       0       0       0       0       0       0       0       0       0       0       0       0       0       0       0       0       0
      Temps:          0       0       0       0       0       0       0       0       0       0       0       0       0       0       0       0       0       0       0       0       0       0       0       0       0       0       0       0       0       0       0       0       0
      Totals:         2       0       0       0       0       0       0       0       0       0       0       0       0       0       0       0       0       0       0       0       0       0       0       0       0       0       0       0       0       0       0       0       0
Total ram usage:        2 bytes
 Hardware stack levels used:    1
 This function calls:
		Nothing
 This function is called by:
		_GLCD_Initialise
		_GLCD_Clear
		_Menu
		_Settings_Menu
		_UART_Page
		_UART_Print
		_UART_Settings
		_Baud_Rate_Settings
		_Toggle_Select
		_Number_Update
		_Baud_rate_Change
		_Maximum_Error_Select
		_Minimum_Error_Select
		_Error_select_range
		_Error_Settings
		_Continous_Transmission_Length
		_Transmission_Settings
		_Auto_Boud
		_Cursor_drawing
		_Cursor_delete
		_Error_Message
 This function uses a non-reentrant model


 *************** function _Command_Write *****************
 Defined at:
		line 144 in file "Display.c"
 Parameters:    Size  Location     Type
  cmd             1    wreg     unsigned char 
 Auto vars:     Size  Location     Type
  cmd             1    0[COMRAM] unsigned char 
 Return value:  Size  Location     Type
                  1    wreg      void 
 Registers used:
		wreg
 Tracked objects:
		On entry : 
		On exit  : 
		Unchanged: 
 Data sizes:     COMRAM   BANK0   BANK1   BANK2   BANK3   BANK4   BANK5   BANK6   BANK7   BANK8   BANK9  BANK10  BANK11  BANK12  BANK13  BANK14  BANK15  BANK16  BANK17  BANK18  BANK19  BANK20  BANK21  BANK22  BANK23  BANK24  BANK25  BANK26  BANK27  BANK28  BANK29  BANK30  BANK31
      Params:         0       0       0       0       0       0       0       0       0       0       0       0       0       0       0       0       0       0       0       0       0       0       0       0       0       0       0       0       0       0       0       0       0
      Locals:         1       0       0       0       0       0       0       0       0       0       0       0       0       0       0       0       0       0       0       0       0       0       0       0       0       0       0       0       0       0       0       0       0
      Temps:          0       0       0       0       0       0       0       0       0       0       0       0       0       0       0       0       0       0       0       0       0       0       0       0       0       0       0       0       0       0       0       0       0
      Totals:         1       0       0       0       0       0       0       0       0       0       0       0       0       0       0       0       0       0       0       0       0       0       0       0       0       0       0       0       0       0       0       0       0
Total ram usage:        1 bytes
 Hardware stack levels used:    1
 This function calls:
		Nothing
 This function is called by:
		_GLCD_Initialise
		_GLCD_Clear
		_Menu
		_Settings_Menu
		_UART_Line
		_UART_Cursor
		_UART_Clear_Line
		_UART_Print
		_UART_Settings
		_Baud_Rate_Settings
		_Toggle_Select
		_Number_Update
		_Baud_rate_Change
		_Maximum_Error_Select
		_Minimum_Error_Select
		_Error_select_range
		_Error_Settings
		_Continous_Transmission_Length
		_Transmission_Settings
		_Auto_Boud
		_Cursor_drawing
		_Cursor_delete
		_Error_Message
 This function uses a non-reentrant model



MODULE INFORMATION

Module		Function		Class		Link	Load	Size
UART.c
		_UART1_Initialize		CODE           	1A3B2	0000	72
		_UART1_Read    		CODE           	1A71E	0000	22

UART.c estimated size: 94

C:\Program Files\Microchip\xc8\v2.31\pic\sources\c99\common\isdigit.c
		_isdigit       		CODE           	1A532	0000	56

C:\Program Files\Microchip\xc8\v2.31\pic\sources\c99\common\isdigit.c estimated size: 56

mcc_generated_files/fatfs/ff.c
		_clst2sect     		CODE           	189C6	0000	216
		_mem_cpy       		CODE           	19F62	0000	98
		_find_volume   		CODE           	10000	0000	3406
		_dir_clear     		CODE           	17A22	0000	344
		_ld_dword      		CODE           	191EC	0000	188
		_remove_chain  		CODE           	15FE2	0000	570
		_f_mount       		CODE           	18488	0000	232
		_get_fat       		CODE           	14A70	0000	1116
		_st_word       		CODE           	1A56A	0000	52
		_get_ldnumber  		CODE           	17478	0000	376
		_st_clust      		CODE           	1A288	0000	80
		_create_name   		CODE           	13CBE	0000	1208
		_chk_chr       		CODE           	19B8A	0000	118
		_create_chain  		CODE           	12C12	0000	1488
		_dbc_1st       		CODE           	1A7A8	0000	10
		_validate      		CODE           	1806C	0000	294
		_check_fs      		CODE           	178C2	0000	352
		_f_sync        		CODE           	1621C	0000	554
		_st_dword      		CODE           	19996	0000	132
		_f_write       		CODE           	10D4E	0000	2110
		_mem_set       		CODE           	1A4FA	0000	56
		_dir_alloc     		CODE           	175F0	0000	366
		_put_fat       		CODE           	131E2	0000	1392
		_sync_fs       		CODE           	16446	0000	554
		_dir_next      		CODE           	14602	0000	1134
		_sync_window   		CODE           	16AAA	0000	454
		_dir_register  		CODE           	1829E	0000	250
		_ld_word       		CODE           	1A4BE	0000	60
		_dir_find      		CODE           	16E22	0000	416
		_f_open        		CODE           	1158C	0000	2090
		_mem_cmp       		CODE           	19532	0000	148
		_f_close       		CODE           	1A026	0000	94
		_dir_sdi       		CODE           	15322	0000	994
		_follow_path   		CODE           	15D28	0000	698
		_dbc_2nd       		CODE           	1A79E	0000	10
		_ld_clust      		CODE           	19912	0000	132
		_move_window   		CODE           	18DF8	0000	212

mcc_generated_files/fatfs/ff.c estimated size: 22004

C:\Program Files\Microchip\xc8\v2.31\pic\sources\c99\common\Umul32.c
		___lmul        		CODE           	19DC6	0000	106

C:\Program Files\Microchip\xc8\v2.31\pic\sources\c99\common\Umul32.c estimated size: 106

C:\Program Files\Microchip\xc8\v2.31\pic\sources\c99\common\putch.c
		_putch         		CODE           	1A7D0	0000	2

C:\Program Files\Microchip\xc8\v2.31\pic\sources\c99\common\putch.c estimated size: 2

C:\Program Files\Microchip\xc8\v2.31\pic\sources\c99\common\nf_fputs.c
		_fputs         		CODE           	1A3FA	0000	68

C:\Program Files\Microchip\xc8\v2.31\pic\sources\c99\common\nf_fputs.c estimated size: 68

C:\Program Files\Microchip\xc8\v2.31\pic\sources\c99\common\aomod.c
		___aomod       		CODE           	1775E	0000	356

C:\Program Files\Microchip\xc8\v2.31\pic\sources\c99\common\aomod.c estimated size: 356

C:\Program Files\Microchip\xc8\v2.31\pic\sources\c99\common\atoi.c
		_atoi          		CODE           	16FC2	0000	414

C:\Program Files\Microchip\xc8\v2.31\pic\sources\c99\common\atoi.c estimated size: 414

C:\Program Files\Microchip\xc8\v2.31\pic\sources\c99\common\abs.c
		_abs           		CODE           	1A43E	0000	64

C:\Program Files\Microchip\xc8\v2.31\pic\sources\c99\common\abs.c estimated size: 64

C:\Program Files\Microchip\xc8\v2.31\pic\sources\c99\common\strlen.c
		_strlen        		CODE           	1A138	0000	88

C:\Program Files\Microchip\xc8\v2.31\pic\sources\c99\common\strlen.c estimated size: 88

mcc_generated_files/pin_manager.c
		_PIN_MANAGER_Initialize		CODE           	192A8	0000	170

mcc_generated_files/pin_manager.c estimated size: 170

C:\Program Files\Microchip\xc8\v2.31\pic\sources\c99\common\strcpy.c
		_strcpy        		CODE           	1A36A	0000	72

C:\Program Files\Microchip\xc8\v2.31\pic\sources\c99\common\strcpy.c estimated size: 72

C:\Program Files\Microchip\xc8\v2.31\pic\sources\c99\common\memset.c
		_memset        		CODE           	17160	0000	400

C:\Program Files\Microchip\xc8\v2.31\pic\sources\c99\common\memset.c estimated size: 400

mcc_generated_files/spi1.c
		_SPI1_ExchangeBlock		CODE           	19EFE	0000	100
		_SPI1_Open     		CODE           	18570	0000	232
		_SPI1_Initialize		CODE           	1A6BA	0000	26
		_SPI1_Close    		CODE           	1A7C2	0000	6
		_SPI1_ExchangeByte		CODE           	1A652	0000	36

mcc_generated_files/spi1.c estimated size: 400

mcc_generated_files/fatfs/diskio.c
		_disk_initialize		CODE           	1A190	0000	84
		_disk_write    		CODE           	19C00	0000	116
		_disk_status   		CODE           	19A1A	0000	124
		_disk_ioctl    		CODE           	1A59E	0000	50
		_disk_read     		CODE           	19C74	0000	116

mcc_generated_files/fatfs/diskio.c estimated size: 490

C:\Program Files\Microchip\xc8\v2.31\pic\sources\c99\common\aodiv.c
		___aodiv       		CODE           	172F0	0000	392

C:\Program Files\Microchip\xc8\v2.31\pic\sources\c99\common\aodiv.c estimated size: 392

mcc_generated_files/drivers/spi_master.c
		_SDSLOW_open   		CODE           	1A7BA	0000	8
		_SDFAST_open   		CODE           	1A7B2	0000	8

mcc_generated_files/drivers/spi_master.c estimated size: 16

C:\Program Files\Microchip\xc8\v2.31\pic\sources\c99\common\nf_fputc.c
		_fputc         		CODE           	18A9E	0000	216

C:\Program Files\Microchip\xc8\v2.31\pic\sources\c99\common\nf_fputc.c estimated size: 216

shared
		_ExCvt         		MEDIUMCONST    	FDB8	0000	128
		__initialization		CODE           	1A322	0000	66
		_Command_map   		MEDIUMCONST    	FED3	0000	10
		_sdmmc_cmdtable		MEDIUMCONST    	FE38	0000	80
		_Character_map 		MEDIUMCONST    	FBDD	0000	475
		_spiMaster     		MEDIUMCONST    	FE88	0000	60
		_spi1_configuration		MEDIUMCONST    	FEC4	0000	15

shared estimated size: 834

Display.c
		_Display_Character		CODE           	19D5A	0000	108
		_Display_Message		CODE           	19CE8	0000	114
		_Command_Write 		CODE           	1A698	0000	34
		_Select_Page   		CODE           	1A47E	0000	64
		_GLCD_Initialise		CODE           	1A0DE	0000	90
		_GLCD_Clear    		CODE           	19A96	0000	122
		_Data_Write    		CODE           	1A676	0000	34

Display.c estimated size: 566

mcc_generated_files/mcc.c
		_OSCILLATOR_Initialize		CODE           	1A6EE	0000	24
		_SYSTEM_Initialize		CODE           	1A790	0000	14

mcc_generated_files/mcc.c estimated size: 38

C:\Program Files\Microchip\xc8\v2.31\pic\sources\c99\common\doprnt.c
		_vfpfcnvrt     		CODE           	16896	0000	532
		_pad           		CODE           	19126	0000	198
		_dtoa          		CODE           	15A44	0000	740
		_vfprintf      		CODE           	19E30	0000	106

C:\Program Files\Microchip\xc8\v2.31\pic\sources\c99\common\doprnt.c estimated size: 1576

C:\Program Files\Microchip\xc8\v2.31\pic\sources\c99\common\memcpy.c
		_memcpy        		CODE           	1A084	0000	90

C:\Program Files\Microchip\xc8\v2.31\pic\sources\c99\common\memcpy.c estimated size: 90

C:\Program Files\Microchip\xc8\v2.31\pic\sources\c99\common\nf_sprintf.c
		_sprintf       		CODE           	1A236	0000	82

C:\Program Files\Microchip\xc8\v2.31\pic\sources\c99\common\nf_sprintf.c estimated size: 82

C:\Program Files\Microchip\xc8\v2.31\pic\sources\c99\common\aldiv.c
		___aldiv       		CODE           	18192	0000	268

C:\Program Files\Microchip\xc8\v2.31\pic\sources\c99\common\aldiv.c estimated size: 268

C:\Program Files\Microchip\xc8\v2.31\pic\sources\c99\common\isspace.c
		_isspace       		CODE           	1A1E4	0000	82

C:\Program Files\Microchip\xc8\v2.31\pic\sources\c99\common\isspace.c estimated size: 82

C:\Program Files\Microchip\xc8\v2.31\pic\sources\c99\common\Umul16.c
		___wmul        		CODE           	1A602	0000	42

C:\Program Files\Microchip\xc8\v2.31\pic\sources\c99\common\Umul16.c estimated size: 42

main.c
		_Cursor_drawing		CODE           	1988A	0000	136
		_UART_Cursor   		CODE           	1A780	0000	16
		_Error_Check   		CODE           	18ECC	0000	204
		_Auto_Boud     		CODE           	18658	0000	222
		_UART_Command_Mapper		CODE           	18F98	0000	200
		_Save_Data     		CODE           	18398	0000	240
		_main          		CODE           	1A748	0000	20
		_Continous_Transmission_Length		CODE           	18D22	0000	214
		_Cursor_Position		CODE           	16670	0000	550
		_UART_Clear_Line		CODE           	1A62C	0000	38
		_Error_Settings		CODE           	18812	0000	218
		_UART_Print    		CODE           	19060	0000	198
		_Logging_Check 		CODE           	1A2D8	0000	74
		_UART_Check_Comm_Start		CODE           	1A5D0	0000	50
		_Toggle_Select 		CODE           	18736	0000	220
		_UART_Check_Command		CODE           	19E9A	0000	100
		_Minimum_Error_Select		CODE           	18B76	0000	214
		_UART_Message  		CODE           	19802	0000	136
		_Baud_Rate_Settings		CODE           	188EC	0000	218
		_Error_select_range		CODE           	19774	0000	142
		_Transmission_Settings		CODE           	17B7A	0000	330
		_Number_Update 		CODE           	16C70	0000	434
		_Number_Select 		CODE           	15704	0000	832
		_UART_Settings 		CODE           	19658	0000	142
		_Menu_Logic    		CODE           	13752	0000	1388
		_UART_Page     		CODE           	1A6D4	0000	26
		_Maximum_Error_Select		CODE           	18C4C	0000	214
		_Auto_Boud_Setup		CODE           	19352	0000	166
		_UART_Start    		CODE           	1949C	0000	150
		_UART_Line     		CODE           	1A770	0000	16
		_Menu          		CODE           	195C6	0000	146
		_UART_Message_Lenght		CODE           	1A75C	0000	20
		_Baud_rate_Change		CODE           	17CC4	0000	328
		_Cursor_delete 		CODE           	19B10	0000	122
		_Settings_Menu 		CODE           	196E6	0000	142

main.c estimated size: 7866

mcc_generated_files/sd_spi/sd_spi.c
		_SD_SPI_IsWriteProtected		CODE           	1A7C8	0000	4
		_SD_SPI_IsMediaInitialized		CODE           	1A706	0000	24
		_SD_SPI_DelayMilliseconds		CODE           	19FC4	0000	98
		_SD_SPI_IsMediaPresent		CODE           	1A7CC	0000	4
		_SD_SPI_SectorWrite		CODE           	17E0C	0000	304
		_SD_SPI_MediaInitialize		CODE           	11DB6	0000	1982
		_SD_SendCmd    		CODE           	14176	0000	1164
		_SD_SPI_AsyncReadTasks		CODE           	14ECC	0000	1110
		_SD_SPI_AsyncWriteTasks		CODE           	12574	0000	1694
		_SD_SPI_SectorRead		CODE           	17F3C	0000	304

mcc_generated_files/sd_spi/sd_spi.c estimated size: 6688

C:\Program Files\Microchip\xc8\v2.31\pic\sources\c99\common\__lldiv.c
		___lldiv       		CODE           	193F8	0000	164

C:\Program Files\Microchip\xc8\v2.31\pic\sources\c99\common\__lldiv.c estimated size: 164

